(dp0
(F115.2
F39.5
tp1
(F0.006319
F0.0011800000000000001
tp2
s(F117.59999999999999
F39.0
tp3
(F0.0060889999999999998
F0.00073399999999999995
tp4
s(F117.2
F40.799999999999997
tp5
(F0.0065339999999999999
F0.0015920000000000001
tp6
s(F116.09999999999999
F39.600000000000001
tp7
(F0.0062870000000000001
F0.0013600000000000001
tp8
s(F115.5
F39.399999999999999
tp9
(F0.0062709999999999997
F0.0011150000000000001
tp10
s(F115.0
F39.700000000000003
tp11
(F0.0062069999999999998
F0.001152
tp12
s(F115.59999999999999
F41.899999999999999
tp13
(F0.0063140000000000002
F0.001885
tp14
s(F117.59999999999999
F40.799999999999997
tp15
(F0.006319
F0.001364
tp16
s(F117.09999999999999
F41.600000000000001
tp17
(F0.0067590000000000003
F0.0022620000000000001
tp18
s(F115.2
F41.799999999999997
tp19
(F0.0066249999999999998
F0.0021150000000000001
tp20
s(F116.40000000000001
F39.100000000000001
tp21
(F0.0061370000000000001
F0.001137
tp22
s(F116.40000000000001
F40.700000000000003
tp23
(F0.0063410000000000003
F0.0016310000000000001
tp24
s(F116.7
F39.600000000000001
tp25
(F0.0059490000000000003
F0.001137
tp26
s(F117.5
F42.0
tp27
(F0.0067590000000000003
F0.0021289999999999998
tp28
s(F115.40000000000001
F39.399999999999999
tp29
(F0.0064910000000000002
F0.0012769999999999999
tp30
s(F116.2
F39.899999999999999
tp31
(F0.0061149999999999998
F0.001268
tp32
s(F117.59999999999999
F39.600000000000001
tp33
(F0.0061640000000000002
F0.0010250000000000001
tp34
s(F116.90000000000001
F40.100000000000001
tp35
(F0.0059439999999999996
F0.0010549999999999999
tp36
s(F117.40000000000001
F39.600000000000001
tp37
(F0.00662
F0.001389
tp38
s(F116.3
F40.899999999999999
tp39
(F0.0061850000000000004
F0.001634
tp40
s(F115.2
F42.0
tp41
(F0.0066519999999999999
F0.0021050000000000001
tp42
s(F115.90000000000001
F40.600000000000001
tp43
(F0.0060239999999999998
F0.0011850000000000001
tp44
s(F118.0
F40.100000000000001
tp45
(F0.0063090000000000004
F0.001243
tp46
s(F117.5
F40.200000000000003
tp47
(F0.0065069999999999998
F0.0012819999999999999
tp48
s(F117.3
F40.700000000000003
tp49
(F0.0065389999999999997
F0.0015009999999999999
tp50
s(F116.40000000000001
F41.399999999999999
tp51
(F0.006437
F0.0021649999999999998
tp52
s(F117.40000000000001
F41.0
tp53
(F0.0068129999999999996
F0.001895
tp54
s(F116.3
F40.0
tp55
(F0.0060730000000000003
F0.001253
tp56
s(F117.0
F40.799999999999997
tp57
(F0.0063140000000000002
F0.0015150000000000001
tp58
s(F115.7
F40.200000000000003
tp59
(F0.0062329999999999998
F0.001168
tp60
s(F117.7
F41.600000000000001
tp61
(F0.0065880000000000001
F0.0020379999999999999
tp62
s(F117.90000000000001
F40.399999999999999
tp63
(F0.0061799999999999997
F0.0011360000000000001
tp64
s(F116.8
F41.899999999999999
tp65
(F0.006319
F0.0020639999999999999
tp66
s(F117.0
F40.600000000000001
tp67
(F0.0062870000000000001
F0.001377
tp68
s(F116.0
F39.600000000000001
tp69
(F0.0060670000000000003
F0.0011529999999999999
tp70
s(F117.8
F39.299999999999997
tp71
(F0.0062760000000000003
F0.001067
tp72
s(F116.0
F40.5
tp73
(F0.0061799999999999997
F0.0013010000000000001
tp74
s(F118.0
F41.799999999999997
tp75
(F0.0065389999999999997
F0.0021069999999999999
tp76
s(F115.0
F40.399999999999999
tp77
(F0.0062919999999999998
F0.0012340000000000001
tp78
s(F116.2
F40.100000000000001
tp79
(F0.0061370000000000001
F0.001276
tp80
s(F117.59999999999999
F41.5
tp81
(F0.0064159999999999998
F0.001872
tp82
s(F115.7
F40.600000000000001
tp83
(F0.0062820000000000003
F0.001312
tp84
s(F115.0
F39.0
tp85
(F0.0061209999999999997
F0.00084599999999999996
tp86
s(F117.0
F39.200000000000003
tp87
(F0.00611
F0.00101
tp88
s(F115.40000000000001
F39.799999999999997
tp89
(F0.0065449999999999996
F0.001372
tp90
s(F116.0
F41.700000000000003
tp91
(F0.0063410000000000003
F0.002055
tp92
s(F117.40000000000001
F41.399999999999999
tp93
(F0.0068719999999999996
F0.002189
tp94
s(F118.0
F42.0
tp95
(F0.0065659999999999998
F0.002101
tp96
s(F115.3
F41.0
tp97
(F0.006502
F0.001696
tp98
s(F115.8
F40.899999999999999
tp99
(F0.0063090000000000004
F0.0015529999999999999
tp100
s(F117.3
F39.100000000000001
tp101
(F0.0063299999999999997
F0.0010070000000000001
tp102
s(F116.09999999999999
F39.100000000000001
tp103
(F0.0062230000000000002
F0.001132
tp104
s(F117.2
F41.0
tp105
(F0.006561
F0.001761
tp106
s(F117.0
F39.299999999999997
tp107
(F0.0061209999999999997
F0.0010629999999999999
tp108
s(F116.59999999999999
F39.100000000000001
tp109
(F0.0056860000000000001
F0.00077399999999999995
tp110
s(F115.8
F41.799999999999997
tp111
(F0.0064320000000000002
F0.0020430000000000001
tp112
s(F115.5
F40.399999999999999
tp113
(F0.0064000000000000003
F0.0012869999999999999
tp114
s(F116.2
F39.5
tp115
(F0.0060619999999999997
F0.0012049999999999999
tp116
s(F115.2
F41.5
tp117
(F0.0065820000000000002
F0.0020530000000000001
tp118
s(F117.7
F42.0
tp119
(F0.0066470000000000001
F0.0020569999999999998
tp120
s(F117.3
F39.5
tp121
(F0.0063839999999999999
F0.001209
tp122
s(F117.59999999999999
F41.799999999999997
tp123
(F0.0064590000000000003
F0.001936
tp124
s(F116.7
F39.899999999999999
tp125
(F0.0059870000000000001
F0.001173
tp126
s(F116.90000000000001
F42.0
tp127
(F0.0061910000000000003
F0.00191
tp128
s(F115.7
F41.399999999999999
tp129
(F0.0063889999999999997
F0.0019109999999999999
tp130
s(F117.3
F39.899999999999999
tp131
(F0.0064320000000000002
F0.0012719999999999999
tp132
s(F115.8
F41.200000000000003
tp133
(F0.0063460000000000001
F0.0018
tp134
s(F115.90000000000001
F40.700000000000003
tp135
(F0.0060400000000000002
F0.001253
tp136
s(F116.90000000000001
F39.299999999999997
tp137
(F0.0058469999999999998
F0.00089700000000000001
tp138
s(F117.40000000000001
F39.100000000000001
tp139
(F0.0065550000000000001
F0.0011609999999999999
tp140
s(F117.40000000000001
F40.799999999999997
tp141
(F0.0067860000000000004
F0.0017260000000000001
tp142
s(F117.0
F39.799999999999997
tp143
(F0.0061850000000000004
F0.0012080000000000001
tp144
s(F115.3
F39.399999999999999
tp145
(F0.0062919999999999998
F0.0011280000000000001
tp146
s(F116.3
F41.100000000000001
tp147
(F0.0062119999999999996
F0.0018029999999999999
tp148
s(F116.0
F41.899999999999999
tp149
(F0.0063680000000000004
F0.0020600000000000002
tp150
s(F118.0
F40.799999999999997
tp151
(F0.0064000000000000003
F0.001539
tp152
s(F116.7
F40.899999999999999
tp153
(F0.00611
F0.001557
tp154
s(F116.09999999999999
F39.0
tp155
(F0.0062119999999999996
F0.0010709999999999999
tp156
s(F115.7
F41.100000000000001
tp157
(F0.0063460000000000001
F0.001702
tp158
s(F117.2
F41.799999999999997
tp159
(F0.0066730000000000001
F0.002163
tp160
s(F115.90000000000001
F41.299999999999997
tp161
(F0.0061149999999999998
F0.001725
tp162
s(F116.2
F39.0
tp163
(F0.0060029999999999997
F0.00094200000000000002
tp164
s(F115.8
F39.299999999999997
tp165
(F0.0061050000000000002
F0.001021
tp166
s(F115.0
F40.100000000000001
tp167
(F0.0062550000000000001
F0.001178
tp168
s(F115.09999999999999
F40.200000000000003
tp169
(F0.0065550000000000001
F0.0013929999999999999
tp170
s(F115.5
F41.299999999999997
tp171
(F0.0065230000000000002
F0.001918
tp172
s(F116.8
F40.600000000000001
tp173
(F0.0061479999999999998
F0.001356
tp174
s(F117.7
F39.899999999999999
tp175
(F0.0063569999999999998
F0.001193
tp176
s(F117.59999999999999
F41.600000000000001
tp177
(F0.0064320000000000002
F0.001905
tp178
s(F115.09999999999999
F39.399999999999999
tp179
(F0.0064530000000000004
F0.001273
tp180
s(F117.90000000000001
F41.5
tp181
(F0.0063299999999999997
F0.0018799999999999999
tp182
s(F118.0
F41.600000000000001
tp183
(F0.0065120000000000004
F0.0020820000000000001
tp184
s(F116.40000000000001
F41.100000000000001
tp185
(F0.0063940000000000004
F0.001952
tp186
s(F116.90000000000001
F41.600000000000001
tp187
(F0.0061370000000000001
F0.0018890000000000001
tp188
s(F116.90000000000001
F40.5
tp189
(F0.0059969999999999997
F0.0011540000000000001
tp190
s(F118.0
F39.799999999999997
tp191
(F0.0062709999999999997
F0.0012279999999999999
tp192
s(F117.8
F41.200000000000003
tp193
(F0.0065279999999999999
F0.0018489999999999999
tp194
s(F116.7
F41.600000000000001
tp195
(F0.0062009999999999999
F0.0020140000000000002
tp196
s(F116.40000000000001
F41.5
tp197
(F0.0064479999999999997
F0.0022139999999999998
tp198
s(F115.3
F40.100000000000001
tp199
(F0.0063839999999999999
F0.001235
tp200
s(F117.0
F41.899999999999999
tp201
(F0.0064640000000000001
F0.0020839999999999999
tp202
s(F117.09999999999999
F41.799999999999997
tp203
(F0.0067860000000000004
F0.0022910000000000001
tp204
s(F115.5
F39.200000000000003
tp205
(F0.0062500000000000003
F0.0010139999999999999
tp206
s(F116.40000000000001
F42.0
tp207
(F0.0065180000000000004
F0.002264
tp208
s(F116.59999999999999
F40.100000000000001
tp209
(F0.0058040000000000001
F0.0010460000000000001
tp210
s(F116.7
F39.0
tp211
(F0.0058739999999999999
F0.00084599999999999996
tp212
s(F116.7
F42.0
tp213
(F0.0062550000000000001
F0.0020330000000000001
tp214
s(F117.3
F40.200000000000003
tp215
(F0.0064749999999999999
F0.001291
tp216
s(F115.90000000000001
F39.5
tp217
(F0.0058900000000000003
F0.00096000000000000002
tp218
s(F117.8
F39.799999999999997
tp219
(F0.0063410000000000003
F0.0012080000000000001
tp220
s(F115.8
F39.0
tp221
(F0.0060670000000000003
F0.00084599999999999996
tp222
s(F115.40000000000001
F41.0
tp223
(F0.0067060000000000002
F0.001846
tp224
s(F117.09999999999999
F39.600000000000001
tp225
(F0.0064859999999999996
F0.0013810000000000001
tp226
s(F116.7
F41.799999999999997
tp227
(F0.006228
F0.0020430000000000001
tp228
s(F117.7
F40.700000000000003
tp229
(F0.0064640000000000001
F0.001423
tp230
s(F116.2
F39.100000000000001
tp231
(F0.0060140000000000002
F0.001003
tp232
s(F115.09999999999999
F39.899999999999999
tp233
(F0.0065180000000000004
F0.0013749999999999999
tp234
s(F116.8
F40.0
tp235
(F0.0060670000000000003
F0.001196
tp236
s(F116.3
F40.100000000000001
tp237
(F0.0060829999999999999
F0.0012600000000000001
tp238
s(F117.2
F39.899999999999999
tp239
(F0.0064099999999999999
F0.0012880000000000001
tp240
s(F115.7
F39.299999999999997
tp241
(F0.0061209999999999997
F0.001
tp242
s(F117.0
F41.700000000000003
tp243
(F0.006437
F0.0020790000000000001
tp244
s(F116.09999999999999
F39.5
tp245
(F0.0062709999999999997
F0.001333
tp246
s(F117.5
F41.399999999999999
tp247
(F0.0066730000000000001
F0.0020279999999999999
tp248
s(F117.3
F41.600000000000001
tp249
(F0.0066629999999999997
F0.0021180000000000001
tp250
s(F117.7
F39.700000000000003
tp251
(F0.0063299999999999997
F0.001176
tp252
s(F116.0
F41.399999999999999
tp253
(F0.0062979999999999998
F0.001952
tp254
s(F117.0
F39.399999999999999
tp255
(F0.0061320000000000003
F0.001111
tp256
s(F117.3
F39.799999999999997
tp257
(F0.0064209999999999996
F0.0012650000000000001
tp258
s(F115.2
F41.600000000000001
tp259
(F0.0065929999999999999
F0.0020899999999999998
tp260
s(F116.90000000000001
F39.399999999999999
tp261
(F0.0058580000000000004
F0.00094499999999999998
tp262
s(F117.0
F40.899999999999999
tp263
(F0.0063249999999999999
F0.001598
tp264
s(F115.3
F41.899999999999999
tp265
(F0.0066249999999999998
F0.0020960000000000002
tp266
s(F115.7
F39.0
tp267
(F0.0060829999999999999
F0.000825
tp268
s(F117.7
F40.899999999999999
tp269
(F0.0064910000000000002
F0.0015770000000000001
tp270
s(F117.59999999999999
F40.600000000000001
tp271
(F0.0062979999999999998
F0.0012260000000000001
tp272
s(F116.5
F41.799999999999997
tp273
(F0.0062709999999999997
F0.002111
tp274
s(F117.59999999999999
F40.200000000000003
tp275
(F0.0062440000000000004
F0.0010820000000000001
tp276
s(F116.5
F40.700000000000003
tp277
(F0.0061260000000000004
F0.0014679999999999999
tp278
s(F117.90000000000001
F40.5
tp279
(F0.0061960000000000001
F0.0011789999999999999
tp280
s(F115.40000000000001
F41.399999999999999
tp281
(F0.0067590000000000003
F0.0021410000000000001
tp282
s(F116.09999999999999
F40.600000000000001
tp283
(F0.0064159999999999998
F0.00156
tp284
s(F116.40000000000001
F40.100000000000001
tp285
(F0.0062659999999999999
F0.0014120000000000001
tp286
s(F115.0
F39.299999999999997
tp287
(F0.0061529999999999996
F0.001021
tp288
s(F115.5
F40.0
tp289
(F0.0063509999999999999
F0.0012199999999999999
tp290
s(F115.90000000000001
F41.700000000000003
tp291
(F0.006169
F0.0018860000000000001
tp292
s(F115.8
F41.399999999999999
tp293
(F0.0063730000000000002
F0.001931
tp294
s(F116.5
F41.399999999999999
tp295
(F0.0062170000000000003
F0.0020040000000000001
tp296
s(F115.90000000000001
F39.700000000000003
tp297
(F0.0059119999999999997
F0.0010070000000000001
tp298
s(F115.2
F40.700000000000003
tp299
(F0.0064749999999999999
F0.001472
tp300
s(F117.40000000000001
F39.799999999999997
tp301
(F0.0066470000000000001
F0.001418
tp302
s(F116.59999999999999
F41.100000000000001
tp303
(F0.0059280000000000001
F0.001593
tp304
s(F117.40000000000001
F39.0
tp305
(F0.0065449999999999996
F0.001096
tp306
s(F116.2
F41.799999999999997
tp307
(F0.0063619999999999996
F0.0021389999999999998
tp308
s(F117.7
F40.399999999999999
tp309
(F0.0064270000000000004
F0.0012620000000000001
tp310
s(F116.2
F42.0
tp311
(F0.0063889999999999997
F0.0021289999999999998
tp312
s(F117.5
F40.5
tp313
(F0.0065500000000000003
F0.001371
tp314
s(F117.3
F39.200000000000003
tp315
(F0.0063410000000000003
F0.0010679999999999999
tp316
s(F117.59999999999999
F41.399999999999999
tp317
(F0.0064050000000000001
F0.0018270000000000001
tp318
s(F116.7
F41.899999999999999
tp319
(F0.0062440000000000004
F0.0020400000000000001
tp320
s(F115.7
F42.0
tp321
(F0.0064689999999999999
F0.0020089999999999999
tp322
s(F116.59999999999999
F41.5
tp323
(F0.0059810000000000002
F0.001848
tp324
s(F117.40000000000001
F40.5
tp325
(F0.0067429999999999999
F0.001534
tp326
s(F116.90000000000001
F40.299999999999997
tp327
(F0.0059709999999999997
F0.0010839999999999999
tp328
s(F117.09999999999999
F40.600000000000001
tp329
(F0.00662
F0.00158
tp330
s(F117.40000000000001
F41.100000000000001
tp331
(F0.006829
F0.001977
tp332
s(F117.90000000000001
F42.0
tp333
(F0.0064000000000000003
F0.001933
tp334
s(F117.2
F39.299999999999997
tp335
(F0.0063350000000000004
F0.001142
tp336
s(F116.09999999999999
F42.0
tp337
(F0.0066039999999999996
F0.0022560000000000002
tp338
s(F116.09999999999999
F41.799999999999997
tp339
(F0.0065770000000000004
F0.0022669999999999999
tp340
s(F117.2
F40.899999999999999
tp341
(F0.0065449999999999996
F0.0016750000000000001
tp342
s(F115.0
F41.299999999999997
tp343
(F0.0064099999999999999
F0.0018699999999999999
tp344
s(F116.5
F39.700000000000003
tp345
(F0.0060029999999999997
F0.001222
tp346
s(F117.2
F41.899999999999999
tp347
(F0.0066889999999999996
F0.0021640000000000001
tp348
s(F116.40000000000001
F40.799999999999997
tp349
(F0.0063569999999999998
F0.0017060000000000001
tp350
s(F115.90000000000001
F39.600000000000001
tp351
(F0.005901
F0.00098799999999999995
tp352
s(F116.09999999999999
F39.399999999999999
tp353
(F0.0062599999999999999
F0.0012930000000000001
tp354
s(F116.5
F40.600000000000001
tp355
(F0.0061149999999999998
F0.0014009999999999999
tp356
s(F115.7
F39.600000000000001
tp357
(F0.0061580000000000003
F0.0011119999999999999
tp358
s(F115.8
F41.600000000000001
tp359
(F0.0064050000000000001
F0.0020140000000000002
tp360
s(F117.7
F41.899999999999999
tp361
(F0.0066299999999999996
F0.0020639999999999999
tp362
s(F115.8
F41.899999999999999
tp363
(F0.0064429999999999999
F0.0020400000000000001
tp364
s(F115.0
F41.799999999999997
tp365
(F0.0064799999999999996
F0.0020349999999999999
tp366
s(F118.0
F39.299999999999997
tp367
(F0.0062069999999999998
F0.001083
tp368
s(F117.59999999999999
F39.200000000000003
tp369
(F0.0061149999999999998
F0.00085599999999999999
tp370
s(F117.5
F39.700000000000003
tp371
(F0.0064429999999999999
F0.0012459999999999999
tp372
s(F116.09999999999999
F39.899999999999999
tp373
(F0.0063249999999999999
F0.001395
tp374
s(F117.40000000000001
F39.899999999999999
tp375
(F0.0066629999999999997
F0.0014239999999999999
tp376
s(F117.3
F41.5
tp377
(F0.0066519999999999999
F0.002085
tp378
s(F115.0
F40.299999999999997
tp379
(F0.0062820000000000003
F0.001207
tp380
s(F117.5
F41.5
tp381
(F0.0066889999999999996
F0.0020730000000000002
tp382
s(F115.59999999999999
F40.799999999999997
tp383
(F0.006169
F0.00132
tp384
s(F116.5
F40.5
tp385
(F0.0060990000000000003
F0.001346
tp386
s(F116.8
F40.5
tp387
(F0.0061320000000000003
F0.0013010000000000001
tp388
s(F116.2
F41.299999999999997
tp389
(F0.0062919999999999998
F0.0019710000000000001
tp390
s(F116.7
F40.799999999999997
tp391
(F0.0060990000000000003
F0.001474
tp392
s(F115.3
F39.700000000000003
tp393
(F0.0063299999999999997
F0.001209
tp394
s(F115.40000000000001
F41.700000000000003
tp395
(F0.0068019999999999999
F0.0022430000000000002
tp396
s(F115.0
F39.100000000000001
tp397
(F0.0061320000000000003
F0.00090799999999999995
tp398
s(F116.59999999999999
F39.600000000000001
tp399
(F0.0057450000000000001
F0.001
tp400
s(F117.2
F39.700000000000003
tp401
(F0.0063839999999999999
F0.001271
tp402
s(F116.59999999999999
F39.399999999999999
tp403
(F0.005718
F0.00093700000000000001
tp404
s(F115.59999999999999
F40.299999999999997
tp405
(F0.0061050000000000002
F0.0010560000000000001
tp406
s(F117.40000000000001
F40.299999999999997
tp407
(F0.0067159999999999997
F0.0014649999999999999
tp408
s(F116.8
F39.399999999999999
tp409
(F0.0059969999999999997
F0.00109
tp410
s(F117.7
F39.799999999999997
tp411
(F0.0063460000000000001
F0.0011869999999999999
tp412
s(F115.5
F39.899999999999999
tp413
(F0.0063350000000000004
F0.0012179999999999999
tp414
s(F116.0
F40.100000000000001
tp415
(F0.0061320000000000003
F0.0011980000000000001
tp416
s(F115.59999999999999
F41.799999999999997
tp417
(F0.0062979999999999998
F0.0018879999999999999
tp418
s(F115.2
F39.600000000000001
tp419
(F0.0063299999999999997
F0.0012110000000000001
tp420
s(F117.2
F40.700000000000003
tp421
(F0.0065180000000000004
F0.0015169999999999999
tp422
s(F116.59999999999999
F39.200000000000003
tp423
(F0.0056969999999999998
F0.00083600000000000005
tp424
s(F115.40000000000001
F41.299999999999997
tp425
(F0.0067479999999999997
F0.0020790000000000001
tp426
s(F115.3
F39.299999999999997
tp427
(F0.0062820000000000003
F0.0010790000000000001
tp428
s(F116.90000000000001
F41.299999999999997
tp429
(F0.0060990000000000003
F0.0017489999999999999
tp430
s(F115.5
F40.5
tp431
(F0.0064159999999999998
F0.0013259999999999999
tp432
s(F117.90000000000001
F41.600000000000001
tp433
(F0.0063410000000000003
F0.001913
tp434
s(F115.59999999999999
F40.200000000000003
tp435
(F0.0060889999999999998
F0.0010369999999999999
tp436
s(F117.2
F39.5
tp437
(F0.0063619999999999996
F0.001225
tp438
s(F116.3
F39.299999999999997
tp439
(F0.0059870000000000001
F0.0011000000000000001
tp440
s(F116.8
F39.200000000000003
tp441
(F0.0059709999999999997
F0.00098900000000000008
tp442
s(F115.7
F41.799999999999997
tp443
(F0.0064429999999999999
F0.002019
tp444
s(F115.0
F41.0
tp445
(F0.0063730000000000002
F0.0016360000000000001
tp446
s(F115.90000000000001
F40.100000000000001
tp447
(F0.0059649999999999998
F0.001034
tp448
s(F116.09999999999999
F40.200000000000003
tp449
(F0.0063619999999999996
F0.001418
tp450
s(F116.40000000000001
F40.5
tp451
(F0.0063140000000000002
F0.0015089999999999999
tp452
s(F116.59999999999999
F39.299999999999997
tp453
(F0.0057080000000000004
F0.00088800000000000001
tp454
s(F116.40000000000001
F39.799999999999997
tp455
(F0.006228
F0.001397
tp456
s(F115.59999999999999
F40.100000000000001
tp457
(F0.0060780000000000001
F0.001026
tp458
s(F115.09999999999999
F41.0
tp459
(F0.0066629999999999997
F0.0018420000000000001
tp460
s(F115.5
F41.899999999999999
tp461
(F0.0066039999999999996
F0.002088
tp462
s(F115.90000000000001
F41.100000000000001
tp463
(F0.0060889999999999998
F0.0015770000000000001
tp464
s(F116.3
F40.200000000000003
tp465
(F0.0060990000000000003
F0.0012700000000000001
tp466
s(F115.7
F41.899999999999999
tp467
(F0.0064590000000000003
F0.002016
tp468
s(F116.0
F40.799999999999997
tp469
(F0.0062170000000000003
F0.0014940000000000001
tp470
s(F115.59999999999999
F41.200000000000003
tp471
(F0.0062170000000000003
F0.001647
tp472
s(F117.3
F40.5
tp473
(F0.0065120000000000004
F0.0013829999999999999
tp474
s(F118.0
F41.399999999999999
tp475
(F0.0064859999999999996
F0.002
tp476
s(F116.0
F41.0
tp477
(F0.0062440000000000004
F0.00166
tp478
s(F118.0
F40.700000000000003
tp479
(F0.0063889999999999997
F0.001464
tp480
s(F116.7
F40.0
tp481
(F0.0059969999999999997
F0.001175
tp482
s(F115.5
F40.100000000000001
tp483
(F0.0063619999999999996
F0.001227
tp484
s(F115.3
F41.299999999999997
tp485
(F0.0065389999999999997
F0.0019300000000000001
tp486
s(F117.8
F42.0
tp487
(F0.0066410000000000002
F0.002081
tp488
s(F115.2
F40.0
tp489
(F0.0063839999999999999
F0.0012489999999999999
tp490
s(F116.2
F40.899999999999999
tp491
(F0.0062440000000000004
F0.00165
tp492
s(F116.59999999999999
F39.0
tp493
(F0.0056699999999999997
F0.00071299999999999998
tp494
s(F116.5
F39.399999999999999
tp495
(F0.0059649999999999998
F0.0011360000000000001
tp496
s(F117.59999999999999
F41.0
tp497
(F0.0063460000000000001
F0.0015299999999999999
tp498
s(F116.5
F40.100000000000001
tp499
(F0.006051
F0.0012470000000000001
tp500
s(F117.09999999999999
F40.0
tp501
(F0.0065389999999999997
F0.0014220000000000001
tp502
s(F115.40000000000001
F40.5
tp503
(F0.0066360000000000004
F0.0014890000000000001
tp504
s(F116.2
F40.799999999999997
tp505
(F0.006228
F0.001572
tp506
s(F115.59999999999999
F40.5
tp507
(F0.0061320000000000003
F0.001126
tp508
s(F117.59999999999999
F39.399999999999999
tp509
(F0.0061419999999999999
F0.00095799999999999998
tp510
s(F116.3
F39.899999999999999
tp511
(F0.0060559999999999998
F0.0012509999999999999
tp512
s(F117.8
F41.600000000000001
tp513
(F0.0065880000000000001
F0.002062
tp514
s(F116.59999999999999
F40.200000000000003
tp515
(F0.0058149999999999999
F0.001057
tp516
s(F116.5
F41.700000000000003
tp517
(F0.0062599999999999999
F0.0021029999999999998
tp518
s(F115.40000000000001
F40.899999999999999
tp519
(F0.0066889999999999996
F0.0017639999999999999
tp520
s(F117.90000000000001
F40.799999999999997
tp521
(F0.0062329999999999998
F0.0013730000000000001
tp522
s(F115.7
F41.700000000000003
tp523
(F0.0064320000000000002
F0.0020110000000000002
tp524
s(F116.8
F39.600000000000001
tp525
(F0.006019
F0.001157
tp526
s(F117.7
F41.799999999999997
tp527
(F0.00662
F0.0020669999999999998
tp528
s(F117.2
F39.200000000000003
tp529
(F0.006319
F0.001085
tp530
s(F116.8
F40.200000000000003
tp531
(F0.0060939999999999996
F0.0012130000000000001
tp532
s(F116.09999999999999
F39.200000000000003
tp533
(F0.0062329999999999998
F0.001193
tp534
s(F116.09999999999999
F41.399999999999999
tp535
(F0.0065230000000000002
F0.0021570000000000001
tp536
s(F116.59999999999999
F40.299999999999997
tp537
(F0.0058310000000000002
F0.0010759999999999999
tp538
s(F116.90000000000001
F39.600000000000001
tp539
(F0.0058849999999999996
F0.0010089999999999999
tp540
s(F115.7
F39.100000000000001
tp541
(F0.0060939999999999996
F0.00088699999999999998
tp542
s(F118.0
F40.0
tp543
(F0.0062919999999999998
F0.001237
tp544
s(F116.7
F40.200000000000003
tp545
(F0.0060239999999999998
F0.0011919999999999999
tp546
s(F116.3
F39.200000000000003
tp547
(F0.0059709999999999997
F0.0010480000000000001
tp548
s(F117.3
F40.0
tp549
(F0.0064479999999999997
F0.0012780000000000001
tp550
s(F117.0
F41.299999999999997
tp551
(F0.006378
F0.0019139999999999999
tp552
s(F115.7
F39.700000000000003
tp553
(F0.006169
F0.0011310000000000001
tp554
s(F116.5
F40.799999999999997
tp555
(F0.0061419999999999999
F0.0015430000000000001
tp556
s(F116.90000000000001
F40.0
tp557
(F0.0059329999999999999
F0.0010480000000000001
tp558
s(F115.09999999999999
F41.799999999999997
tp559
(F0.0067749999999999998
F0.0022430000000000002
tp560
s(F115.40000000000001
F39.899999999999999
tp561
(F0.0065550000000000001
F0.001379
tp562
s(F115.7
F41.5
tp563
(F0.0064000000000000003
F0.001957
tp564
s(F115.7
F39.200000000000003
tp565
(F0.0061050000000000002
F0.00094399999999999996
tp566
s(F115.2
F39.299999999999997
tp567
(F0.0062919999999999998
F0.001096
tp568
s(F116.59999999999999
F39.899999999999999
tp569
(F0.005777
F0.0010369999999999999
tp570
s(F116.2
F41.200000000000003
tp571
(F0.0062820000000000003
F0.0019009999999999999
tp572
s(F116.2
F39.299999999999997
tp573
(F0.0060400000000000002
F0.0011169999999999999
tp574
s(F115.40000000000001
F40.0
tp575
(F0.0065709999999999996
F0.0013810000000000001
tp576
s(F117.8
F40.899999999999999
tp577
(F0.0064910000000000002
F0.0016019999999999999
tp578
s(F115.3
F39.100000000000001
tp579
(F0.0062550000000000001
F0.00096599999999999995
tp580
s(F116.2
F41.899999999999999
tp581
(F0.006378
F0.0021359999999999999
tp582
s(F115.2
F41.0
tp583
(F0.0065120000000000004
F0.0017129999999999999
tp584
s(F116.5
F40.399999999999999
tp585
(F0.0060889999999999998
F0.001307
tp586
s(F116.5
F41.100000000000001
tp587
(F0.0061799999999999997
F0.0017910000000000001
tp588
s(F117.40000000000001
F41.799999999999997
tp589
(F0.0069309999999999997
F0.0022950000000000002
tp590
s(F117.09999999999999
F40.899999999999999
tp591
(F0.0066569999999999997
F0.001804
tp592
s(F116.7
F41.0
tp593
(F0.0061260000000000004
F0.00164
tp594
s(F117.7
F39.200000000000003
tp595
(F0.0062659999999999999
F0.00098900000000000008
tp596
s(F116.8
F39.799999999999997
tp597
(F0.0060460000000000002
F0.0011869999999999999
tp598
s(F115.5
F42.0
tp599
(F0.00662
F0.0020769999999999999
tp600
s(F117.5
F40.799999999999997
tp601
(F0.0065880000000000001
F0.001567
tp602
s(F116.59999999999999
F41.200000000000003
tp603
(F0.0059439999999999996
F0.001671
tp604
s(F117.0
F39.100000000000001
tp605
(F0.0060990000000000003
F0.00094899999999999997
tp606
s(F117.09999999999999
F40.799999999999997
tp607
(F0.0066470000000000001
F0.001722
tp608
s(F115.09999999999999
F40.100000000000001
tp609
(F0.0065449999999999996
F0.0013829999999999999
tp610
s(F116.0
F41.100000000000001
tp611
(F0.0062599999999999999
F0.0017420000000000001
tp612
s(F118.0
F39.399999999999999
tp613
(F0.0062170000000000003
F0.001132
tp614
s(F115.2
F41.200000000000003
tp615
(F0.0065389999999999997
F0.001877
tp616
s(F116.3
F41.299999999999997
tp617
(F0.0062389999999999998
F0.0019550000000000001
tp618
s(F116.8
F41.200000000000003
tp619
(F0.0062230000000000002
F0.0018240000000000001
tp620
s(F116.3
F40.700000000000003
tp621
(F0.0061580000000000003
F0.0014760000000000001
tp622
s(F116.8
F39.899999999999999
tp623
(F0.0060559999999999998
F0.001193
tp624
s(F115.2
F40.899999999999999
tp625
(F0.006502
F0.0016299999999999999
tp626
s(F115.5
F41.5
tp627
(F0.0065500000000000003
F0.002029
tp628
s(F115.09999999999999
F40.799999999999997
tp629
(F0.0066360000000000004
F0.001673
tp630
s(F115.0
F41.200000000000003
tp631
(F0.0064000000000000003
F0.0017960000000000001
tp632
s(F116.59999999999999
F41.299999999999997
tp633
(F0.0059550000000000002
F0.0017409999999999999
tp634
s(F116.40000000000001
F41.799999999999997
tp635
(F0.0064910000000000002
F0.0022750000000000001
tp636
s(F115.8
F39.899999999999999
tp637
(F0.0061799999999999997
F0.0011689999999999999
tp638
s(F116.09999999999999
F41.899999999999999
tp639
(F0.0065929999999999999
F0.002264
tp640
s(F115.8
F39.700000000000003
tp641
(F0.0061529999999999996
F0.001152
tp642
s(F115.7
F39.899999999999999
tp643
(F0.0061960000000000001
F0.0011479999999999999
tp644
s(F118.0
F40.5
tp645
(F0.0063619999999999996
F0.001346
tp646
s(F117.3
F41.0
tp647
(F0.0065820000000000002
F0.0017409999999999999
tp648
s(F117.3
F40.899999999999999
tp649
(F0.0065659999999999998
F0.001658
tp650
s(F115.3
F39.899999999999999
tp651
(F0.0063569999999999998
F0.0012260000000000001
tp652
s(F116.90000000000001
F39.200000000000003
tp653
(F0.005836
F0.00084400000000000002
tp654
s(F117.5
F40.700000000000003
tp655
(F0.0065770000000000004
F0.001493
tp656
s(F117.5
F40.600000000000001
tp657
(F0.006561
F0.001426
tp658
s(F116.0
F40.399999999999999
tp659
(F0.006169
F0.001258
tp660
s(F116.59999999999999
F40.899999999999999
tp661
(F0.0059059999999999998
F0.001423
tp662
s(F116.7
F39.100000000000001
tp663
(F0.0058849999999999996
F0.00090799999999999995
tp664
s(F115.7
F40.5
tp665
(F0.0062709999999999997
F0.001256
tp666
s(F116.0
F39.700000000000003
tp667
(F0.0060780000000000001
F0.0011720000000000001
tp668
s(F117.8
F41.899999999999999
tp669
(F0.0066299999999999996
F0.002088
tp670
s(F115.8
F39.799999999999997
tp671
(F0.006169
F0.0011659999999999999
tp672
s(F116.40000000000001
F40.200000000000003
tp673
(F0.0062760000000000003
F0.0014220000000000001
tp674
s(F115.09999999999999
F39.700000000000003
tp675
(F0.0064910000000000002
F0.001358
tp676
s(F117.90000000000001
F41.399999999999999
tp677
(F0.0063140000000000002
F0.001835
tp678
s(F117.09999999999999
F41.899999999999999
tp679
(F0.0068019999999999999
F0.0022880000000000001
tp680
s(F118.0
F39.600000000000001
tp681
(F0.0062440000000000004
F0.001199
tp682
s(F117.8
F40.0
tp683
(F0.0063680000000000004
F0.0012199999999999999
tp684
s(F117.7
F40.200000000000003
tp685
(F0.0064000000000000003
F0.0012130000000000001
tp686
s(F116.8
F40.799999999999997
tp687
(F0.0061739999999999998
F0.0014940000000000001
tp688
s(F117.59999999999999
F40.899999999999999
tp689
(F0.0063350000000000004
F0.0014480000000000001
tp690
s(F115.90000000000001
F41.5
tp691
(F0.0061419999999999999
F0.0018320000000000001
tp692
s(F115.40000000000001
F39.0
tp693
(F0.0064429999999999999
F0.0010549999999999999
tp694
s(F115.90000000000001
F39.899999999999999
tp695
(F0.0059379999999999997
F0.0010250000000000001
tp696
s(F117.5
F39.799999999999997
tp697
(F0.0064530000000000004
F0.0012570000000000001
tp698
s(F116.2
F40.600000000000001
tp699
(F0.0062009999999999999
F0.0014300000000000001
tp700
s(F115.3
F40.600000000000001
tp701
(F0.0064479999999999997
F0.001389
tp702
s(F117.8
F39.899999999999999
tp703
(F0.0063569999999999998
F0.001214
tp704
s(F116.3
F40.5
tp705
(F0.0061370000000000001
F0.001358
tp706
s(F116.09999999999999
F41.0
tp707
(F0.0064689999999999999
F0.0018619999999999999
tp708
s(F117.5
F39.100000000000001
tp709
(F0.0063619999999999996
F0.0009990000000000001
tp710
s(F117.0
F39.5
tp711
(F0.0061479999999999998
F0.001147
tp712
s(F117.59999999999999
F41.100000000000001
tp713
(F0.0063619999999999996
F0.0016130000000000001
tp714
s(F117.59999999999999
F41.700000000000003
tp715
(F0.0064429999999999999
F0.0019269999999999999
tp716
s(F115.8
F41.0
tp717
(F0.006319
F0.00164
tp718
s(F117.2
F41.200000000000003
tp719
(F0.0065880000000000001
F0.001921
tp720
s(F116.3
F41.799999999999997
tp721
(F0.0063090000000000004
F0.0021229999999999999
tp722
s(F117.90000000000001
F40.200000000000003
tp723
(F0.0061580000000000003
F0.00109
tp724
s(F116.3
F39.100000000000001
tp725
(F0.00596
F0.00098700000000000003
tp726
s(F116.09999999999999
F41.200000000000003
tp727
(F0.006496
F0.002026
tp728
s(F117.09999999999999
F42.0
tp729
(F0.0068180000000000003
F0.0022799999999999999
tp730
s(F117.3
F42.0
tp731
(F0.0067219999999999997
F0.002137
tp732
s(F115.40000000000001
F42.0
tp733
(F0.0068450000000000004
F0.0022399999999999998
tp734
s(F116.3
F41.200000000000003
tp735
(F0.006228
F0.0018810000000000001
tp736
s(F115.2
F39.200000000000003
tp737
(F0.0062820000000000003
F0.0010430000000000001
tp738
s(F117.09999999999999
F41.0
tp739
(F0.0066730000000000001
F0.001887
tp740
s(F116.90000000000001
F40.200000000000003
tp741
(F0.00596
F0.001065
tp742
s(F116.09999999999999
F40.899999999999999
tp743
(F0.0064530000000000004
F0.0017799999999999999
tp744
s(F116.5
F41.0
tp745
(F0.0061640000000000002
F0.0017080000000000001
tp746
s(F118.0
F40.399999999999999
tp747
(F0.0063460000000000001
F0.0013029999999999999
tp748
s(F115.7
F40.799999999999997
tp749
(F0.0063090000000000004
F0.0014499999999999999
tp750
s(F117.0
F40.200000000000003
tp751
(F0.0062329999999999998
F0.0012329999999999999
tp752
s(F117.09999999999999
F39.5
tp753
(F0.0064689999999999999
F0.001354
tp754
s(F116.59999999999999
F41.899999999999999
tp755
(F0.0060350000000000004
F0.0019090000000000001
tp756
s(F116.5
F39.5
tp757
(F0.0059760000000000004
F0.001176
tp758
s(F116.2
F39.200000000000003
tp759
(F0.0060239999999999998
F0.0010640000000000001
tp760
s(F117.3
F41.299999999999997
tp761
(F0.0066249999999999998
F0.0019750000000000002
tp762
s(F115.5
F39.100000000000001
tp763
(F0.0062389999999999998
F0.00095299999999999996
tp764
s(F117.3
F41.200000000000003
tp765
(F0.0066090000000000003
F0.001905
tp766
s(F115.90000000000001
F40.399999999999999
tp767
(F0.0060029999999999997
F0.001091
tp768
s(F117.0
F41.399999999999999
tp769
(F0.0063940000000000004
F0.0019759999999999999
tp770
s(F116.40000000000001
F39.200000000000003
tp771
(F0.0061529999999999996
F0.0011969999999999999
tp772
s(F117.59999999999999
F41.299999999999997
tp773
(F0.0063889999999999997
F0.0017650000000000001
tp774
s(F116.5
F39.100000000000001
tp775
(F0.0059280000000000001
F0.00097400000000000004
tp776
s(F115.90000000000001
F42.0
tp777
(F0.0062069999999999998
F0.0018860000000000001
tp778
s(F117.90000000000001
F39.899999999999999
tp779
(F0.0061149999999999998
F0.00107
tp780
s(F115.5
F39.5
tp781
(F0.0062870000000000001
F0.001155
tp782
s(F115.09999999999999
F41.899999999999999
tp783
(F0.0067910000000000002
F0.0022399999999999998
tp784
s(F117.7
F41.200000000000003
tp785
(F0.0065339999999999999
F0.0018240000000000001
tp786
s(F117.0
F42.0
tp787
(F0.0064749999999999999
F0.0020769999999999999
tp788
s(F115.09999999999999
F40.5
tp789
(F0.0065979999999999997
F0.0014809999999999999
tp790
s(F115.0
F39.799999999999997
tp791
(F0.0062170000000000003
F0.0011620000000000001
tp792
s(F117.09999999999999
F41.700000000000003
tp793
(F0.00677
F0.0022829999999999999
tp794
s(F117.8
F40.600000000000001
tp795
(F0.0064479999999999997
F0.0013810000000000001
tp796
s(F115.40000000000001
F41.600000000000001
tp797
(F0.0067910000000000002
F0.002222
tp798
s(F115.5
F39.299999999999997
tp799
(F0.0062599999999999999
F0.001067
tp800
s(F115.90000000000001
F39.100000000000001
tp801
(F0.005842
F0.00076199999999999998
tp802
s(F115.09999999999999
F39.600000000000001
tp803
(F0.0064799999999999996
F0.0013389999999999999
tp804
s(F117.5
F41.799999999999997
tp805
(F0.0067320000000000001
F0.0021350000000000002
tp806
s(F115.0
F41.100000000000001
tp807
(F0.0063839999999999999
F0.0017179999999999999
tp808
s(F115.3
F40.799999999999997
tp809
(F0.0064749999999999999
F0.001531
tp810
s(F117.3
F39.700000000000003
tp811
(F0.0064050000000000001
F0.001255
tp812
s(F117.8
F41.399999999999999
tp813
(F0.0065550000000000001
F0.00198
tp814
s(F116.40000000000001
F39.899999999999999
tp815
(F0.0062389999999999998
F0.0013990000000000001
tp816
s(F117.0
F40.5
tp817
(F0.0062760000000000003
F0.001322
tp818
s(F117.40000000000001
F40.200000000000003
tp819
(F0.0067060000000000002
F0.0014419999999999999
tp820
s(F115.5
F41.399999999999999
tp821
(F0.0065389999999999997
F0.00198
tp822
s(F117.7
F39.100000000000001
tp823
(F0.0062550000000000001
F0.00092800000000000001
tp824
s(F117.2
F41.299999999999997
tp825
(F0.0066039999999999996
F0.0019949999999999998
tp826
s(F116.7
F39.799999999999997
tp827
(F0.0059709999999999997
F0.0011659999999999999
tp828
s(F116.7
F41.200000000000003
tp829
(F0.0061529999999999996
F0.001804
tp830
s(F117.0
F39.0
tp831
(F0.0060829999999999999
F0.00088800000000000001
tp832
s(F115.5
F41.700000000000003
tp833
(F0.0065770000000000004
F0.0020790000000000001
tp834
s(F116.90000000000001
F41.200000000000003
tp835
(F0.0060829999999999999
F0.0016789999999999999
tp836
s(F115.3
F41.5
tp837
(F0.0065709999999999996
F0.0020370000000000002
tp838
s(F115.5
F39.700000000000003
tp839
(F0.0063140000000000002
F0.001201
tp840
s(F116.2
F41.600000000000001
tp841
(F0.0063350000000000004
F0.0021099999999999999
tp842
s(F117.2
F40.0
tp843
(F0.0064270000000000004
F0.001294
tp844
s(F115.40000000000001
F40.399999999999999
tp845
(F0.0066249999999999998
F0.001446
tp846
s(F116.2
F40.200000000000003
tp847
(F0.0061529999999999996
F0.0012869999999999999
tp848
s(F117.3
F40.299999999999997
tp849
(F0.0064859999999999996
F0.0013090000000000001
tp850
s(F117.2
F40.5
tp851
(F0.0064910000000000002
F0.0013990000000000001
tp852
s(F115.90000000000001
F40.299999999999997
tp853
(F0.0059870000000000001
F0.0010640000000000001
tp854
s(F117.2
F41.600000000000001
tp855
(F0.0066470000000000001
F0.002134
tp856
s(F115.0
F41.700000000000003
tp857
(F0.0064640000000000001
F0.0020309999999999998
tp858
s(F117.59999999999999
F40.299999999999997
tp859
(F0.0062550000000000001
F0.001101
tp860
s(F117.90000000000001
F39.399999999999999
tp861
(F0.0060559999999999998
F0.00096599999999999995
tp862
s(F115.09999999999999
F39.5
tp863
(F0.0064640000000000001
F0.0013079999999999999
tp864
s(F116.5
F39.799999999999997
tp865
(F0.0060140000000000002
F0.001232
tp866
s(F116.7
F41.100000000000001
tp867
(F0.0061370000000000001
F0.001722
tp868
s(F115.7
F39.5
tp869
(F0.0061419999999999999
F0.0010839999999999999
tp870
s(F115.90000000000001
F39.299999999999997
tp871
(F0.0058630000000000002
F0.00087600000000000004
tp872
s(F116.7
F39.200000000000003
tp873
(F0.005901
F0.00096900000000000003
tp874
s(F117.8
F40.5
tp875
(F0.0064320000000000002
F0.0013259999999999999
tp876
s(F117.09999999999999
F39.899999999999999
tp877
(F0.0065230000000000002
F0.00142
tp878
s(F115.90000000000001
F39.200000000000003
tp879
(F0.0058529999999999997
F0.00081899999999999996
tp880
s(F115.3
F40.200000000000003
tp881
(F0.0063940000000000004
F0.0012459999999999999
tp882
s(F115.40000000000001
F41.200000000000003
tp883
(F0.0067320000000000001
F0.0020100000000000001
tp884
s(F116.8
F41.0
tp885
(F0.0062009999999999999
F0.00166
tp886
s(F115.8
F40.399999999999999
tp887
(F0.0062440000000000004
F0.001238
tp888
s(F116.90000000000001
F41.799999999999997
tp889
(F0.0061640000000000002
F0.00192
tp890
s(F117.3
F41.899999999999999
tp891
(F0.0067060000000000002
F0.0021440000000000001
tp892
s(F115.09999999999999
F39.100000000000001
tp893
(F0.0064159999999999998
F0.0011119999999999999
tp894
s(F117.5
F41.700000000000003
tp895
(F0.0067159999999999997
F0.002127
tp896
s(F117.40000000000001
F41.200000000000003
tp897
(F0.0068450000000000004
F0.0020539999999999998
tp898
s(F115.2
F40.100000000000001
tp899
(F0.0063940000000000004
F0.001256
tp900
s(F115.2
F39.399999999999999
tp901
(F0.0063029999999999996
F0.0011440000000000001
tp902
s(F117.7
F40.100000000000001
tp903
(F0.0063839999999999999
F0.0012019999999999999
tp904
s(F115.40000000000001
F40.799999999999997
tp905
(F0.006679
F0.001681
tp906
s(F115.3
F41.799999999999997
tp907
(F0.0066090000000000003
F0.0020950000000000001
tp908
s(F115.2
F40.399999999999999
tp909
(F0.0064320000000000002
F0.0013110000000000001
tp910
s(F117.8
F40.799999999999997
tp911
(F0.0064749999999999999
F0.001519
tp912
s(F115.0
F40.200000000000003
tp913
(F0.0062659999999999999
F0.001188
tp914
s(F115.59999999999999
F39.700000000000003
tp915
(F0.0060299999999999998
F0.0009990000000000001
tp916
s(F116.90000000000001
F39.899999999999999
tp917
(F0.0059220000000000002
F0.0010449999999999999
tp918
s(F117.2
F39.100000000000001
tp919
(F0.0063090000000000004
F0.0010280000000000001
tp920
s(F115.8
F40.100000000000001
tp921
(F0.0062069999999999998
F0.0011820000000000001
tp922
s(F116.0
F39.0
tp923
(F0.0059919999999999999
F0.00086700000000000004
tp924
s(F115.40000000000001
F39.5
tp925
(F0.0065069999999999998
F0.0013159999999999999
tp926
s(F115.2
F41.899999999999999
tp927
(F0.0066360000000000004
F0.0021159999999999998
tp928
s(F115.40000000000001
F41.5
tp929
(F0.0067749999999999998
F0.0021900000000000001
tp930
s(F117.3
F40.399999999999999
tp931
(F0.006502
F0.00134
tp932
s(F117.40000000000001
F41.5
tp933
(F0.006888
F0.0022339999999999999
tp934
s(F115.7
F40.399999999999999
tp935
(F0.0062550000000000001
F0.001217
tp936
s(F117.3
F39.299999999999997
tp937
(F0.0063569999999999998
F0.001121
tp938
s(F115.8
F40.0
tp939
(F0.0061910000000000003
F0.001175
tp940
s(F117.2
F41.5
tp941
(F0.0066299999999999996
F0.002101
tp942
s(F117.40000000000001
F40.899999999999999
tp943
(F0.0068019999999999999
F0.0018079999999999999
tp944
s(F116.40000000000001
F41.200000000000003
tp945
(F0.0064099999999999999
F0.0020339999999999998
tp946
s(F117.09999999999999
F41.100000000000001
tp947
(F0.0066889999999999996
F0.0019729999999999999
tp948
s(F117.59999999999999
F39.299999999999997
tp949
(F0.0061260000000000004
F0.00090899999999999998
tp950
s(F117.59999999999999
F39.5
tp951
(F0.0061529999999999996
F0.00099799999999999997
tp952
s(F115.5
F40.299999999999997
tp953
(F0.0063889999999999997
F0.001256
tp954
s(F116.7
F40.100000000000001
tp955
(F0.0060080000000000003
F0.0011820000000000001
tp956
s(F117.8
F39.399999999999999
tp957
(F0.0062870000000000001
F0.001111
tp958
s(F116.2
F39.399999999999999
tp959
(F0.006051
F0.001165
tp960
s(F118.0
F41.899999999999999
tp961
(F0.0065550000000000001
F0.0021080000000000001
tp962
s(F115.40000000000001
F40.600000000000001
tp963
(F0.0066519999999999999
F0.0015399999999999999
tp964
s(F116.0
F40.700000000000003
tp965
(F0.0062069999999999998
F0.0014189999999999999
tp966
s(F115.90000000000001
F40.200000000000003
tp967
(F0.0059760000000000004
F0.0010449999999999999
tp968
s(F117.5
F41.0
tp969
(F0.00662
F0.0017329999999999999
tp970
s(F117.2
F40.600000000000001
tp971
(F0.0065069999999999998
F0.001454
tp972
s(F117.5
F39.399999999999999
tp973
(F0.0064000000000000003
F0.0011609999999999999
tp974
s(F116.59999999999999
F41.0
tp975
(F0.0059170000000000004
F0.001506
tp976
s(F116.09999999999999
F41.600000000000001
tp977
(F0.0065500000000000003
F0.002238
tp978
s(F116.0
F39.5
tp979
(F0.0060559999999999998
F0.001126
tp980
s(F116.09999999999999
F40.799999999999997
tp981
(F0.0064429999999999999
F0.0016969999999999999
tp982
s(F115.40000000000001
F39.299999999999997
tp983
(F0.0064799999999999996
F0.0012290000000000001
tp984
s(F115.2
F40.799999999999997
tp985
(F0.0064859999999999996
F0.001547
tp986
s(F116.59999999999999
F40.5
tp987
(F0.0058529999999999997
F0.0011460000000000001
tp988
s(F115.40000000000001
F39.200000000000003
tp989
(F0.0064689999999999999
F0.001176
tp990
s(F117.8
F41.0
tp991
(F0.006502
F0.001684
tp992
s(F115.5
F41.600000000000001
tp993
(F0.0065659999999999998
F0.002062
tp994
s(F116.2
F41.100000000000001
tp995
(F0.0062659999999999999
F0.0018190000000000001
tp996
s(F117.7
F41.100000000000001
tp997
(F0.0065180000000000004
F0.0017459999999999999
tp998
s(F116.8
F41.399999999999999
tp999
(F0.0062500000000000003
F0.0019559999999999998
tp1000
s(F115.59999999999999
F40.899999999999999
tp1001
(F0.0061799999999999997
F0.0013990000000000001
tp1002
s(F118.0
F40.299999999999997
tp1003
(F0.0063350000000000004
F0.0012719999999999999
tp1004
s(F117.0
F39.700000000000003
tp1005
(F0.006169
F0.0011969999999999999
tp1006
s(F115.3
F39.0
tp1007
(F0.0062440000000000004
F0.00090499999999999999
tp1008
s(F116.5
F41.899999999999999
tp1009
(F0.0062870000000000001
F0.0021080000000000001
tp1010
s(F115.0
F39.899999999999999
tp1011
(F0.006228
F0.0011689999999999999
tp1012
s(F116.2
F39.600000000000001
tp1013
(F0.0060780000000000001
F0.001232
tp1014
s(F117.3
F39.399999999999999
tp1015
(F0.0063680000000000004
F0.0011689999999999999
tp1016
s(F115.7
F39.399999999999999
tp1017
(F0.0061320000000000003
F0.001049
tp1018
s(F115.90000000000001
F41.600000000000001
tp1019
(F0.0061529999999999996
F0.0018649999999999999
tp1020
s(F117.09999999999999
F40.5
tp1021
(F0.0066039999999999996
F0.0015299999999999999
tp1022
s(F116.2
F40.0
tp1023
(F0.0061260000000000004
F0.0012700000000000001
tp1024
s(F117.59999999999999
F42.0
tp1025
(F0.0064859999999999996
F0.0019250000000000001
tp1026
s(F117.40000000000001
F41.899999999999999
tp1027
(F0.0069470000000000001
F0.0022959999999999999
tp1028
s(F117.59999999999999
F41.200000000000003
tp1029
(F0.006378
F0.0016949999999999999
tp1030
s(F117.5
F39.0
tp1031
(F0.0063509999999999999
F0.00093800000000000003
tp1032
s(F117.0
F41.799999999999997
tp1033
(F0.0064479999999999997
F0.0020830000000000002
tp1034
s(F115.7
F41.200000000000003
tp1035
(F0.0063619999999999996
F0.0017799999999999999
tp1036
s(F115.3
F40.5
tp1037
(F0.006437
F0.001338
tp1038
s(F117.8
F40.700000000000003
tp1039
(F0.0064590000000000003
F0.001444
tp1040
s(F117.8
F40.399999999999999
tp1041
(F0.0064209999999999996
F0.0012830000000000001
tp1042
s(F117.0
F41.600000000000001
tp1043
(F0.0064209999999999996
F0.0020579999999999999
tp1044
s(F116.2
F40.399999999999999
tp1045
(F0.0061739999999999998
F0.0013359999999999999
tp1046
s(F117.09999999999999
F40.200000000000003
tp1047
(F0.0065659999999999998
F0.001438
tp1048
s(F117.2
F41.700000000000003
tp1049
(F0.0066569999999999997
F0.0021549999999999998
tp1050
s(F116.90000000000001
F39.100000000000001
tp1051
(F0.0058199999999999997
F0.00078299999999999995
tp1052
s(F117.8
F39.200000000000003
tp1053
(F0.0062659999999999999
F0.00101
tp1054
s(F115.0
F39.399999999999999
tp1055
(F0.006169
F0.001065
tp1056
s(F115.90000000000001
F40.0
tp1057
(F0.0059490000000000003
F0.0010269999999999999
tp1058
s(F116.3
F41.399999999999999
tp1059
(F0.0062550000000000001
F0.0020119999999999999
tp1060
s(F115.8
F41.100000000000001
tp1061
(F0.0063350000000000004
F0.001722
tp1062
s(F116.7
F40.399999999999999
tp1063
(F0.0060460000000000002
F0.001238
tp1064
s(F117.5
F39.299999999999997
tp1065
(F0.0063889999999999997
F0.0011130000000000001
tp1066
s(F116.7
F41.399999999999999
tp1067
(F0.0061739999999999998
F0.0019350000000000001
tp1068
s(F117.0
F40.0
tp1069
(F0.0062119999999999996
F0.0012160000000000001
tp1070
s(F116.8
F42.0
tp1071
(F0.0063350000000000004
F0.0020569999999999998
tp1072
s(F116.2
F40.5
tp1073
(F0.0061910000000000003
F0.001379
tp1074
s(F116.40000000000001
F40.899999999999999
tp1075
(F0.0063680000000000004
F0.001784
tp1076
s(F117.5
F39.600000000000001
tp1077
(F0.0064270000000000004
F0.0012229999999999999
tp1078
s(F116.3
F40.600000000000001
tp1079
(F0.0061479999999999998
F0.001413
tp1080
s(F115.09999999999999
F41.600000000000001
tp1081
(F0.0067479999999999997
F0.0022139999999999998
tp1082
s(F118.0
F41.299999999999997
tp1083
(F0.0064689999999999999
F0.0019380000000000001
tp1084
s(F117.5
F41.899999999999999
tp1085
(F0.0067429999999999999
F0.0021359999999999999
tp1086
s(F116.40000000000001
F39.299999999999997
tp1087
(F0.0061640000000000002
F0.0012539999999999999
tp1088
s(F115.59999999999999
F40.600000000000001
tp1089
(F0.0061419999999999999
F0.0011770000000000001
tp1090
s(F116.90000000000001
F41.0
tp1091
(F0.0060619999999999997
F0.0015139999999999999
tp1092
s(F117.8
F41.799999999999997
tp1093
(F0.0066140000000000001
F0.002091
tp1094
s(F115.5
F40.200000000000003
tp1095
(F0.006378
F0.001237
tp1096
s(F115.0
F40.899999999999999
tp1097
(F0.0063569999999999998
F0.001549
tp1098
s(F116.09999999999999
F39.799999999999997
tp1099
(F0.0063090000000000004
F0.001389
tp1100
s(F116.3
F41.5
tp1101
(F0.0062659999999999999
F0.0020609999999999999
tp1102
s(F115.3
F39.5
tp1103
(F0.0063090000000000004
F0.001163
tp1104
s(F116.8
F40.100000000000001
tp1105
(F0.0060829999999999999
F0.0012019999999999999
tp1106
s(F117.7
F39.399999999999999
tp1107
(F0.0062919999999999998
F0.00109
tp1108
s(F117.59999999999999
F40.700000000000003
tp1109
(F0.0063090000000000004
F0.001289
tp1110
s(F115.0
F39.600000000000001
tp1111
(F0.0061910000000000003
F0.0011329999999999999
tp1112
s(F115.8
F40.200000000000003
tp1113
(F0.0062170000000000003
F0.0011919999999999999
tp1114
s(F115.90000000000001
F41.200000000000003
tp1115
(F0.0061050000000000002
F0.001655
tp1116
s(F117.90000000000001
F40.0
tp1117
(F0.0061320000000000003
F0.001073
tp1118
s(F116.3
F39.0
tp1119
(F0.0059490000000000003
F0.00092500000000000004
tp1120
s(F115.3
F40.399999999999999
tp1121
(F0.0064209999999999996
F0.0012949999999999999
tp1122
s(F115.5
F39.799999999999997
tp1123
(F0.0063249999999999999
F0.001212
tp1124
s(F115.7
F40.100000000000001
tp1125
(F0.0062170000000000003
F0.001157
tp1126
s(F115.5
F41.100000000000001
tp1127
(F0.006496
F0.001771
tp1128
s(F116.90000000000001
F39.799999999999997
tp1129
(F0.0059059999999999998
F0.001039
tp1130
s(F117.3
F39.0
tp1131
(F0.006319
F0.00094600000000000001
tp1132
s(F115.8
F40.299999999999997
tp1133
(F0.006228
F0.0012110000000000001
tp1134
s(F115.0
F39.200000000000003
tp1135
(F0.0061419999999999999
F0.00096400000000000001
tp1136
s(F117.09999999999999
F40.700000000000003
tp1137
(F0.0066299999999999996
F0.001647
tp1138
s(F116.09999999999999
F40.700000000000003
tp1139
(F0.0064270000000000004
F0.0016230000000000001
tp1140
s(F115.5
F39.600000000000001
tp1141
(F0.0062979999999999998
F0.0011820000000000001
tp1142
s(F115.3
F41.700000000000003
tp1143
(F0.0065979999999999997
F0.002091
tp1144
s(F115.8
F41.700000000000003
tp1145
(F0.0064159999999999998
F0.0020349999999999999
tp1146
s(F116.2
F41.5
tp1147
(F0.006319
F0.0020769999999999999
tp1148
s(F117.09999999999999
F39.100000000000001
tp1149
(F0.0064209999999999996
F0.0011529999999999999
tp1150
s(F117.09999999999999
F39.200000000000003
tp1151
(F0.0064320000000000002
F0.001214
tp1152
s(F115.09999999999999
F41.399999999999999
tp1153
(F0.0067219999999999997
F0.002137
tp1154
s(F116.40000000000001
F41.899999999999999
tp1155
(F0.0065069999999999998
F0.0022720000000000001
tp1156
s(F115.90000000000001
F40.899999999999999
tp1157
(F0.0060619999999999997
F0.001407
tp1158
s(F116.0
F40.600000000000001
tp1159
(F0.0061960000000000001
F0.0013519999999999999
tp1160
s(F115.3
F41.100000000000001
tp1161
(F0.0065120000000000004
F0.001779
tp1162
s(F117.90000000000001
F40.600000000000001
tp1163
(F0.0062069999999999998
F0.0012340000000000001
tp1164
s(F116.3
F39.600000000000001
tp1165
(F0.0060239999999999998
F0.0012149999999999999
tp1166
s(F117.2
F40.399999999999999
tp1167
(F0.0064799999999999996
F0.0013600000000000001
tp1168
s(F116.0
F41.299999999999997
tp1169
(F0.0062870000000000001
F0.0018940000000000001
tp1170
s(F117.5
F40.899999999999999
tp1171
(F0.0066039999999999996
F0.0016459999999999999
tp1172
s(F116.5
F40.299999999999997
tp1173
(F0.0060780000000000001
F0.001276
tp1174
s(F117.90000000000001
F39.799999999999997
tp1175
(F0.0061050000000000002
F0.0010629999999999999
tp1176
s(F116.7
F39.299999999999997
tp1177
(F0.0059119999999999997
F0.001021
tp1178
s(F118.0
F41.200000000000003
tp1179
(F0.0064530000000000004
F0.001869
tp1180
s(F115.0
F39.5
tp1181
(F0.0061799999999999997
F0.0011050000000000001
tp1182
s(F116.8
F41.100000000000001
tp1183
(F0.0062119999999999996
F0.0017459999999999999
tp1184
s(F117.5
F41.200000000000003
tp1185
(F0.0066470000000000001
F0.001897
tp1186
s(F116.7
F41.299999999999997
tp1187
(F0.0061640000000000002
F0.001874
tp1188
s(F117.90000000000001
F41.0
tp1189
(F0.0062599999999999999
F0.0015380000000000001
tp1190
s(F117.59999999999999
F39.700000000000003
tp1191
(F0.0061799999999999997
F0.001044
tp1192
s(F115.90000000000001
F40.799999999999997
tp1193
(F0.006051
F0.001328
tp1194
s(F116.09999999999999
F41.100000000000001
tp1195
(F0.0064799999999999996
F0.0019480000000000001
tp1196
s(F116.40000000000001
F40.600000000000001
tp1197
(F0.0063299999999999997
F0.0015640000000000001
tp1198
s(F115.59999999999999
F39.299999999999997
tp1199
(F0.0059810000000000002
F0.00086799999999999996
tp1200
s(F117.40000000000001
F41.600000000000001
tp1201
(F0.0068989999999999998
F0.0022699999999999999
tp1202
s(F115.09999999999999
F40.899999999999999
tp1203
(F0.0066519999999999999
F0.001756
tp1204
s(F115.7
F40.299999999999997
tp1205
(F0.0062440000000000004
F0.001186
tp1206
s(F117.0
F40.700000000000003
tp1207
(F0.0063029999999999996
F0.0014400000000000001
tp1208
s(F116.09999999999999
F40.5
tp1209
(F0.0064000000000000003
F0.001505
tp1210
s(F116.90000000000001
F40.899999999999999
tp1211
(F0.0060460000000000002
F0.001431
tp1212
s(F115.8
F42.0
tp1213
(F0.0064590000000000003
F0.0020330000000000001
tp1214
s(F117.40000000000001
F39.299999999999997
tp1215
(F0.0065820000000000002
F0.001274
tp1216
s(F115.59999999999999
F39.0
tp1217
(F0.0059439999999999996
F0.00069200000000000002
tp1218
s(F116.90000000000001
F41.100000000000001
tp1219
(F0.0060730000000000003
F0.001601
tp1220
s(F115.90000000000001
F41.899999999999999
tp1221
(F0.0061960000000000001
F0.0018929999999999999
tp1222
s(F117.0
F39.899999999999999
tp1223
(F0.0061960000000000001
F0.001214
tp1224
s(F115.7
F41.299999999999997
tp1225
(F0.0063730000000000002
F0.0018500000000000001
tp1226
s(F115.8
F39.5
tp1227
(F0.0061320000000000003
F0.0011050000000000001
tp1228
s(F116.0
F41.5
tp1229
(F0.0063140000000000002
F0.0020010000000000002
tp1230
s(F117.90000000000001
F41.100000000000001
tp1231
(F0.0062760000000000003
F0.001621
tp1232
s(F117.90000000000001
F41.700000000000003
tp1233
(F0.0063569999999999998
F0.0019350000000000001
tp1234
s(F115.3
F40.899999999999999
tp1235
(F0.0064859999999999996
F0.0016100000000000001
tp1236
s(F115.59999999999999
F39.5
tp1237
(F0.0060029999999999997
F0.00095200000000000005
tp1238
s(F117.09999999999999
F40.100000000000001
tp1239
(F0.0065500000000000003
F0.001428
tp1240
s(F117.40000000000001
F40.600000000000001
tp1241
(F0.0067590000000000003
F0.001588
tp1242
s(F115.59999999999999
F39.399999999999999
tp1243
(F0.0059919999999999999
F0.00091600000000000004
tp1244
s(F117.7
F39.5
tp1245
(F0.0063090000000000004
F0.0011299999999999999
tp1246
s(F115.40000000000001
F41.100000000000001
tp1247
(F0.0067159999999999997
F0.001928
tp1248
s(F118.0
F41.700000000000003
tp1249
(F0.0065230000000000002
F0.0021029999999999998
tp1250
s(F115.09999999999999
F42.0
tp1251
(F0.0068019999999999999
F0.002232
tp1252
s(F117.2
F41.399999999999999
tp1253
(F0.0066140000000000001
F0.0020560000000000001
tp1254
s(F115.0
F41.600000000000001
tp1255
(F0.0064530000000000004
F0.0020100000000000001
tp1256
s(F117.90000000000001
F41.200000000000003
tp1257
(F0.0062870000000000001
F0.0017030000000000001
tp1258
s(F115.2
F41.700000000000003
tp1259
(F0.0066090000000000003
F0.0021069999999999999
tp1260
s(F116.40000000000001
F41.299999999999997
tp1261
(F0.0064209999999999996
F0.002104
tp1262
s(F118.0
F40.600000000000001
tp1263
(F0.0063730000000000002
F0.001397
tp1264
s(F117.59999999999999
F40.399999999999999
tp1265
(F0.0062709999999999997
F0.0011280000000000001
tp1266
s(F117.40000000000001
F40.100000000000001
tp1267
(F0.0066889999999999996
F0.0014319999999999999
tp1268
s(F116.5
F42.0
tp1269
(F0.0063029999999999996
F0.002101
tp1270
s(F117.90000000000001
F39.200000000000003
tp1271
(F0.0060299999999999998
F0.00086499999999999999
tp1272
s(F116.0
F40.0
tp1273
(F0.0061149999999999998
F0.001196
tp1274
s(F116.0
F39.299999999999997
tp1275
(F0.0060299999999999998
F0.001042
tp1276
s(F117.2
F42.0
tp1277
(F0.0067000000000000002
F0.002153
tp1278
s(F117.2
F40.200000000000003
tp1279
(F0.0064530000000000004
F0.0013110000000000001
tp1280
s(F116.3
F42.0
tp1281
(F0.0063350000000000004
F0.0021129999999999999
tp1282
s(F118.0
F41.100000000000001
tp1283
(F0.0064429999999999999
F0.001787
tp1284
s(F116.09999999999999
F39.299999999999997
tp1285
(F0.0062440000000000004
F0.001245
tp1286
s(F116.09999999999999
F40.100000000000001
tp1287
(F0.0063460000000000001
F0.001403
tp1288
s(F116.40000000000001
F39.600000000000001
tp1289
(F0.0062009999999999999
F0.001364
tp1290
s(F115.8
F41.299999999999997
tp1291
(F0.0063619999999999996
F0.001874
tp1292
s(F117.8
F39.700000000000003
tp1293
(F0.0063299999999999997
F0.0011969999999999999
tp1294
s(F118.0
F39.5
tp1295
(F0.006228
F0.0011709999999999999
tp1296
s(F116.09999999999999
F41.5
tp1297
(F0.0065339999999999999
F0.0022060000000000001
tp1298
s(F116.0
F41.200000000000003
tp1299
(F0.0062709999999999997
F0.00182
tp1300
s(F116.5
F40.899999999999999
tp1301
(F0.0061529999999999996
F0.001622
tp1302
s(F115.90000000000001
F39.799999999999997
tp1303
(F0.0059280000000000001
F0.001018
tp1304
s(F117.5
F40.0
tp1305
(F0.0064799999999999996
F0.001266
tp1306
s(F116.5
F41.600000000000001
tp1307
(F0.0062440000000000004
F0.0020820000000000001
tp1308
s(F116.59999999999999
F40.600000000000001
tp1309
(F0.0058630000000000002
F0.0012019999999999999
tp1310
s(F117.2
F39.600000000000001
tp1311
(F0.0063730000000000002
F0.0012520000000000001
tp1312
s(F116.0
F40.200000000000003
tp1313
(F0.0061419999999999999
F0.001209
tp1314
s(F115.59999999999999
F41.600000000000001
tp1315
(F0.0062709999999999997
F0.0018569999999999999
tp1316
s(F116.0
F39.399999999999999
tp1317
(F0.0060460000000000002
F0.00109
tp1318
s(F117.7
F39.299999999999997
tp1319
(F0.0062820000000000003
F0.001042
tp1320
s(F117.59999999999999
F39.899999999999999
tp1321
(F0.0062009999999999999
F0.001062
tp1322
s(F115.09999999999999
F40.299999999999997
tp1323
(F0.0065709999999999996
F0.0014109999999999999
tp1324
s(F115.59999999999999
F41.700000000000003
tp1325
(F0.0062870000000000001
F0.0018779999999999999
tp1326
s(F117.90000000000001
F40.100000000000001
tp1327
(F0.0061419999999999999
F0.0010790000000000001
tp1328
s(F117.90000000000001
F40.700000000000003
tp1329
(F0.0062230000000000002
F0.001297
tp1330
s(F116.5
F41.200000000000003
tp1331
(F0.0061910000000000003
F0.0018730000000000001
tp1332
s(F115.09999999999999
F41.299999999999997
tp1333
(F0.0067060000000000002
F0.002075
tp1334
s(F117.2
F40.299999999999997
tp1335
(F0.0064640000000000001
F0.00133
tp1336
s(F116.0
F40.899999999999999
tp1337
(F0.0062329999999999998
F0.001573
tp1338
s(F115.59999999999999
F39.799999999999997
tp1339
(F0.0060400000000000002
F0.00101
tp1340
s(F116.5
F41.5
tp1341
(F0.0062329999999999998
F0.002049
tp1342
s(F116.8
F39.5
tp1343
(F0.0060080000000000003
F0.0011299999999999999
tp1344
s(F115.2
F39.799999999999997
tp1345
(F0.0063569999999999998
F0.0012409999999999999
tp1346
s(F115.3
F40.700000000000003
tp1347
(F0.0064590000000000003
F0.001456
tp1348
s(F116.3
F41.600000000000001
tp1349
(F0.0062820000000000003
F0.0020939999999999999
tp1350
s(F115.40000000000001
F40.700000000000003
tp1351
(F0.0066629999999999997
F0.001606
tp1352
s(F115.3
F41.600000000000001
tp1353
(F0.0065820000000000002
F0.0020699999999999998
tp1354
s(F117.40000000000001
F40.0
tp1355
(F0.006679
F0.001426
tp1356
s(F116.40000000000001
F40.299999999999997
tp1357
(F0.0062919999999999998
F0.0014400000000000001
tp1358
s(F115.59999999999999
F39.600000000000001
tp1359
(F0.006019
F0.00097999999999999997
tp1360
s(F115.90000000000001
F40.5
tp1361
(F0.0060140000000000002
F0.001134
tp1362
s(F116.09999999999999
F40.399999999999999
tp1363
(F0.0063889999999999997
F0.001462
tp1364
s(F117.09999999999999
F39.399999999999999
tp1365
(F0.0064590000000000003
F0.0013140000000000001
tp1366
s(F116.2
F41.0
tp1367
(F0.0062550000000000001
F0.001737
tp1368
s(F116.3
F39.700000000000003
tp1369
(F0.0060350000000000004
F0.0012340000000000001
tp1370
s(F115.2
F40.5
tp1371
(F0.0064479999999999997
F0.001354
tp1372
s(F116.0
F39.200000000000003
tp1373
(F0.006019
F0.00098900000000000008
tp1374
s(F117.59999999999999
F40.100000000000001
tp1375
(F0.006228
F0.0010709999999999999
tp1376
s(F115.5
F41.799999999999997
tp1377
(F0.0065929999999999999
F0.0020869999999999999
tp1378
s(F115.40000000000001
F40.299999999999997
tp1379
(F0.0066090000000000003
F0.0014159999999999999
tp1380
s(F116.8
F39.0
tp1381
(F0.0059439999999999996
F0.00086700000000000004
tp1382
s(F115.3
F40.299999999999997
tp1383
(F0.0064099999999999999
F0.0012639999999999999
tp1384
s(F117.90000000000001
F41.799999999999997
tp1385
(F0.0063730000000000002
F0.001944
tp1386
s(F115.59999999999999
F39.200000000000003
tp1387
(F0.0059709999999999997
F0.00081499999999999997
tp1388
s(F115.3
F39.799999999999997
tp1389
(F0.0063460000000000001
F0.0012199999999999999
tp1390
s(F116.90000000000001
F40.799999999999997
tp1391
(F0.0060350000000000004
F0.001348
tp1392
s(F117.90000000000001
F39.700000000000003
tp1393
(F0.0060939999999999996
F0.001052
tp1394
s(F115.0
F41.5
tp1395
(F0.006437
F0.001977
tp1396
s(F115.09999999999999
F41.700000000000003
tp1397
(F0.0067590000000000003
F0.002235
tp1398
s(F116.40000000000001
F39.5
tp1399
(F0.0061910000000000003
F0.0013370000000000001
tp1400
s(F115.5
F41.0
tp1401
(F0.0064799999999999996
F0.001684
tp1402
s(F117.40000000000001
F41.299999999999997
tp1403
(F0.0068560000000000001
F0.0021280000000000001
tp1404
s(F116.59999999999999
F41.600000000000001
tp1405
(F0.0059919999999999999
F0.0018810000000000001
tp1406
s(F115.2
F40.600000000000001
tp1407
(F0.0064590000000000003
F0.0014090000000000001
tp1408
s(F117.7
F40.299999999999997
tp1409
(F0.0064099999999999999
F0.0012310000000000001
tp1410
s(F117.8
F40.200000000000003
tp1411
(F0.0063940000000000004
F0.001237
tp1412
s(F117.3
F41.799999999999997
tp1413
(F0.0066950000000000004
F0.0021429999999999999
tp1414
s(F116.0
F39.799999999999997
tp1415
(F0.0060939999999999996
F0.001183
tp1416
s(F118.0
F41.0
tp1417
(F0.0064270000000000004
F0.001704
tp1418
s(F117.09999999999999
F39.299999999999997
tp1419
(F0.0064479999999999997
F0.0012700000000000001
tp1420
s(F116.40000000000001
F39.399999999999999
tp1421
(F0.0061739999999999998
F0.001297
tp1422
s(F115.8
F40.799999999999997
tp1423
(F0.0062979999999999998
F0.001474
tp1424
s(F115.2
F41.299999999999997
tp1425
(F0.0065550000000000001
F0.0019469999999999999
tp1426
s(F115.59999999999999
F41.100000000000001
tp1427
(F0.0062069999999999998
F0.0015679999999999999
tp1428
s(F115.2
F39.100000000000001
tp1429
(F0.0062659999999999999
F0.00098200000000000002
tp1430
s(F115.0
F41.899999999999999
tp1431
(F0.0064910000000000002
F0.002036
tp1432
s(F116.40000000000001
F39.0
tp1433
(F0.0061260000000000004
F0.0010759999999999999
tp1434
s(F117.3
F41.700000000000003
tp1435
(F0.006679
F0.0021389999999999998
tp1436
s(F116.8
F39.700000000000003
tp1437
(F0.0060299999999999998
F0.001176
tp1438
s(F116.40000000000001
F40.0
tp1439
(F0.0062500000000000003
F0.001405
tp1440
s(F115.0
F41.399999999999999
tp1441
(F0.0064270000000000004
F0.0019269999999999999
tp1442
s(F116.09999999999999
F39.700000000000003
tp1443
(F0.0062979999999999998
F0.001379
tp1444
s(F116.59999999999999
F41.799999999999997
tp1445
(F0.006019
F0.0019120000000000001
tp1446
s(F115.5
F41.200000000000003
tp1447
(F0.0065069999999999998
F0.0018489999999999999
tp1448
s(F117.8
F41.5
tp1449
(F0.0065709999999999996
F0.002029
tp1450
s(F115.90000000000001
F41.0
tp1451
(F0.0060780000000000001
F0.00149
tp1452
s(F115.59999999999999
F40.399999999999999
tp1453
(F0.0061149999999999998
F0.001083
tp1454
s(F116.59999999999999
F42.0
tp1455
(F0.0060460000000000002
F0.001902
tp1456
s(F117.5
F40.100000000000001
tp1457
(F0.006496
F0.0012719999999999999
tp1458
s(F116.2
F39.799999999999997
tp1459
(F0.0060990000000000003
F0.001261
tp1460
s(F116.7
F40.299999999999997
tp1461
(F0.0060350000000000004
F0.0012110000000000001
tp1462
s(F117.09999999999999
F41.200000000000003
tp1463
(F0.0067000000000000002
F0.0020500000000000002
tp1464
s(F117.59999999999999
F39.100000000000001
tp1465
(F0.0061050000000000002
F0.00079500000000000003
tp1466
s(F115.90000000000001
F41.399999999999999
tp1467
(F0.0061260000000000004
F0.001787
tp1468
s(F117.8
F41.299999999999997
tp1469
(F0.0065449999999999996
F0.0019220000000000001
tp1470
s(F117.5
F39.200000000000003
tp1471
(F0.006378
F0.0010560000000000001
tp1472
s(F115.40000000000001
F41.899999999999999
tp1473
(F0.006829
F0.002248
tp1474
s(F115.0
F40.600000000000001
tp1475
(F0.006319
F0.001328
tp1476
s(F116.40000000000001
F41.600000000000001
tp1477
(F0.0064640000000000001
F0.0022460000000000002
tp1478
s(F116.59999999999999
F40.399999999999999
tp1479
(F0.005842
F0.0011069999999999999
tp1480
s(F115.5
F40.600000000000001
tp1481
(F0.0064270000000000004
F0.0013810000000000001
tp1482
s(F116.8
F41.600000000000001
tp1483
(F0.0062760000000000003
F0.0020379999999999999
tp1484
s(F115.09999999999999
F39.0
tp1485
(F0.0064050000000000001
F0.0010510000000000001
tp1486
s(F115.59999999999999
F39.899999999999999
tp1487
(F0.006051
F0.001016
tp1488
s(F115.8
F39.200000000000003
tp1489
(F0.0060939999999999996
F0.00096900000000000003
tp1490
s(F116.8
F41.799999999999997
tp1491
(F0.0063090000000000004
F0.0020669999999999998
tp1492
s(F117.09999999999999
F39.700000000000003
tp1493
(F0.006496
F0.0013990000000000001
tp1494
s(F115.40000000000001
F39.600000000000001
tp1495
(F0.0065180000000000004
F0.001343
tp1496
s(F117.3
F41.100000000000001
tp1497
(F0.0065929999999999999
F0.001823
tp1498
s(F116.5
F39.600000000000001
tp1499
(F0.0059870000000000001
F0.0012030000000000001
tp1500
s(F116.90000000000001
F40.600000000000001
tp1501
(F0.0060080000000000003
F0.0012099999999999999
tp1502
s(F117.2
F39.799999999999997
tp1503
(F0.0064000000000000003
F0.001286
tp1504
s(F117.09999999999999
F40.399999999999999
tp1505
(F0.0065929999999999999
F0.001487
tp1506
s(F115.0
F40.0
tp1507
(F0.0062440000000000004
F0.0011709999999999999
tp1508
s(F116.0
F39.899999999999999
tp1509
(F0.0061050000000000002
F0.001189
tp1510
s(F117.8
F39.5
tp1511
(F0.0063029999999999996
F0.0011509999999999999
tp1512
s(F117.7
F41.299999999999997
tp1513
(F0.0065449999999999996
F0.0018979999999999999
tp1514
s(F117.0
F41.5
tp1515
(F0.0064099999999999999
F0.0020249999999999999
tp1516
s(F117.0
F40.299999999999997
tp1517
(F0.0062500000000000003
F0.0012520000000000001
tp1518
s(F115.7
F40.700000000000003
tp1519
(F0.0062979999999999998
F0.0013749999999999999
tp1520
s(F116.59999999999999
F39.700000000000003
tp1521
(F0.0057559999999999998
F0.0010189999999999999
tp1522
s(F116.5
F39.200000000000003
tp1523
(F0.0059379999999999997
F0.0010349999999999999
tp1524
s(F117.09999999999999
F40.299999999999997
tp1525
(F0.0065770000000000004
F0.001456
tp1526
s(F117.90000000000001
F41.299999999999997
tp1527
(F0.0063029999999999996
F0.0017730000000000001
tp1528
s(F115.7
F41.0
tp1529
(F0.0063350000000000004
F0.0016149999999999999
tp1530
s(F115.2
F39.700000000000003
tp1531
(F0.0063410000000000003
F0.00123
tp1532
s(F116.3
F40.799999999999997
tp1533
(F0.0061739999999999998
F0.0015510000000000001
tp1534
s(F116.8
F40.700000000000003
tp1535
(F0.0061580000000000003
F0.0014189999999999999
tp1536
s(F117.7
F40.799999999999997
tp1537
(F0.0064799999999999996
F0.001498
tp1538
s(F117.7
F41.0
tp1539
(F0.0065069999999999998
F0.0016639999999999999
tp1540
s(F115.2
F41.399999999999999
tp1541
(F0.0065659999999999998
F0.0020079999999999998
tp1542
s(F116.59999999999999
F39.799999999999997
tp1543
(F0.0057670000000000004
F0.0010300000000000001
tp1544
s(F117.5
F41.600000000000001
tp1545
(F0.0067000000000000002
F0.0021099999999999999
tp1546
s(F115.5
F39.0
tp1547
(F0.0062230000000000002
F0.000892
tp1548
s(F116.7
F39.700000000000003
tp1549
(F0.00596
F0.0011559999999999999
tp1550
s(F116.3
F41.700000000000003
tp1551
(F0.0062919999999999998
F0.0021150000000000001
tp1552
s(F117.3
F41.399999999999999
tp1553
(F0.0066360000000000004
F0.002036
tp1554
s(F115.09999999999999
F40.0
tp1555
(F0.0065279999999999999
F0.001377
tp1556
s(F115.2
F40.299999999999997
tp1557
(F0.0064209999999999996
F0.0012849999999999999
tp1558
s(F117.09999999999999
F41.5
tp1559
(F0.0067429999999999999
F0.0022300000000000002
tp1560
s(F116.09999999999999
F40.299999999999997
tp1561
(F0.0063730000000000002
F0.001436
tp1562
s(F115.09999999999999
F41.100000000000001
tp1563
(F0.006679
F0.0019239999999999999
tp1564
s(F116.09999999999999
F40.0
tp1565
(F0.0063350000000000004
F0.0014009999999999999
tp1566
s(F116.59999999999999
F41.399999999999999
tp1567
(F0.0059649999999999998
F0.0018029999999999999
tp1568
s(F116.2
F41.700000000000003
tp1569
(F0.0063509999999999999
F0.0021310000000000001
tp1570
s(F118.0
F39.700000000000003
tp1571
(F0.0062550000000000001
F0.0012179999999999999
tp1572
s(F117.2
F39.399999999999999
tp1573
(F0.0063460000000000001
F0.0011900000000000001
tp1574
s(F116.0
F42.0
tp1575
(F0.006378
F0.0020530000000000001
tp1576
s(F115.09999999999999
F39.799999999999997
tp1577
(F0.006502
F0.0013680000000000001
tp1578
s(F116.5
F39.899999999999999
tp1579
(F0.0060239999999999998
F0.0012390000000000001
tp1580
s(F115.3
F42.0
tp1581
(F0.0066410000000000002
F0.0020890000000000001
tp1582
s(F116.2
F40.299999999999997
tp1583
(F0.0061640000000000002
F0.001305
tp1584
s(F117.90000000000001
F40.899999999999999
tp1585
(F0.0062500000000000003
F0.001456
tp1586
s(F117.09999999999999
F41.399999999999999
tp1587
(F0.0067270000000000003
F0.0021810000000000002
tp1588
s(F115.8
F40.700000000000003
tp1589
(F0.0062820000000000003
F0.0013990000000000001
tp1590
s(F116.7
F39.399999999999999
tp1591
(F0.0059220000000000002
F0.0010690000000000001
tp1592
s(F115.0
F40.700000000000003
tp1593
(F0.0063299999999999997
F0.001395
tp1594
s(F116.3
F39.399999999999999
tp1595
(F0.0059969999999999997
F0.0011479999999999999
tp1596
s(F115.8
F39.100000000000001
tp1597
(F0.0060780000000000001
F0.00090799999999999995
tp1598
s(F117.5
F41.299999999999997
tp1599
(F0.0066569999999999997
F0.001967
tp1600
s(F116.3
F40.399999999999999
tp1601
(F0.0061209999999999997
F0.00132
tp1602
s(F116.59999999999999
F40.700000000000003
tp1603
(F0.0058789999999999997
F0.0012650000000000001
tp1604
s(F116.5
F40.200000000000003
tp1605
(F0.0060619999999999997
F0.001258
tp1606
s(F116.5
F41.299999999999997
tp1607
(F0.0062069999999999998
F0.0019419999999999999
tp1608
s(F117.09999999999999
F41.299999999999997
tp1609
(F0.0067159999999999997
F0.0021199999999999999
tp1610
s(F115.09999999999999
F40.600000000000001
tp1611
(F0.0066090000000000003
F0.001536
tp1612
s(F115.40000000000001
F40.100000000000001
tp1613
(F0.0065820000000000002
F0.001387
tp1614
s(F117.8
F39.600000000000001
tp1615
(F0.0063140000000000002
F0.001178
tp1616
s(F115.7
F41.600000000000001
tp1617
(F0.0064159999999999998
F0.00199
tp1618
s(F116.3
F39.799999999999997
tp1619
(F0.0060460000000000002
F0.001245
tp1620
s(F116.8
F41.700000000000003
tp1621
(F0.0062919999999999998
F0.0020590000000000001
tp1622
s(F115.90000000000001
F41.799999999999997
tp1623
(F0.0061799999999999997
F0.0018959999999999999
tp1624
s(F116.8
F40.399999999999999
tp1625
(F0.0061209999999999997
F0.0012620000000000001
tp1626
s(F116.8
F40.299999999999997
tp1627
(F0.00611
F0.0012310000000000001
tp1628
s(F116.3
F39.5
tp1629
(F0.0060080000000000003
F0.001188
tp1630
s(F116.09999999999999
F41.700000000000003
tp1631
(F0.0065659999999999998
F0.0022590000000000002
tp1632
s(F115.09999999999999
F40.700000000000003
tp1633
(F0.0066249999999999998
F0.001598
tp1634
s(F115.5
F40.799999999999997
tp1635
(F0.0064530000000000004
F0.001519
tp1636
s(F115.09999999999999
F39.299999999999997
tp1637
(F0.0064429999999999999
F0.001225
tp1638
s(F116.3
F41.0
tp1639
(F0.0062009999999999999
F0.001717
tp1640
s(F115.8
F40.600000000000001
tp1641
(F0.0062709999999999997
F0.0013320000000000001
tp1642
s(F117.90000000000001
F39.5
tp1643
(F0.0060670000000000003
F0.0010020000000000001
tp1644
s(F116.0
F39.100000000000001
tp1645
(F0.0060080000000000003
F0.00092800000000000001
tp1646
s(F116.90000000000001
F41.899999999999999
tp1647
(F0.0061799999999999997
F0.0019170000000000001
tp1648
s(F116.5
F39.299999999999997
tp1649
(F0.0059490000000000003
F0.001088
tp1650
s(F115.59999999999999
F40.0
tp1651
(F0.0060670000000000003
F0.0010189999999999999
tp1652
s(F115.3
F39.600000000000001
tp1653
(F0.006319
F0.0011900000000000001
tp1654
s(F115.8
F41.5
tp1655
(F0.0063889999999999997
F0.0019810000000000001
tp1656
s(F117.7
F39.0
tp1657
(F0.0062440000000000004
F0.00086700000000000004
tp1658
s(F116.09999999999999
F41.299999999999997
tp1659
(F0.0065069999999999998
F0.0020999999999999999
tp1660
s(F117.0
F40.399999999999999
tp1661
(F0.0062599999999999999
F0.0012830000000000001
tp1662
s(F117.3
F40.600000000000001
tp1663
(F0.0065279999999999999
F0.0014339999999999999
tp1664
s(F115.2
F39.899999999999999
tp1665
(F0.0063680000000000004
F0.0012470000000000001
tp1666
s(F117.40000000000001
F39.200000000000003
tp1667
(F0.0065709999999999996
F0.0012179999999999999
tp1668
s(F116.40000000000001
F39.700000000000003
tp1669
(F0.0062119999999999996
F0.0013829999999999999
tp1670
s(F115.2
F39.0
tp1671
(F0.0062550000000000001
F0.00092100000000000005
tp1672
s(F115.7
F40.899999999999999
tp1673
(F0.0063249999999999999
F0.0015330000000000001
tp1674
s(F116.8
F41.5
tp1675
(F0.0062659999999999999
F0.0020049999999999998
tp1676
s(F117.0
F39.600000000000001
tp1677
(F0.0061580000000000003
F0.001178
tp1678
s(F115.0
F40.5
tp1679
(F0.0063090000000000004
F0.0012769999999999999
tp1680
s(F115.7
F40.0
tp1681
(F0.0062069999999999998
F0.0011509999999999999
tp1682
s(F116.90000000000001
F39.5
tp1683
(F0.0058690000000000001
F0.0009810000000000001
tp1684
s(F116.90000000000001
F41.5
tp1685
(F0.0061260000000000004
F0.001856
tp1686
s(F116.8
F41.299999999999997
tp1687
(F0.0062389999999999998
F0.0018979999999999999
tp1688
s(F117.40000000000001
F42.0
tp1689
(F0.0069579999999999998
F0.0022880000000000001
tp1690
s(F117.8
F41.100000000000001
tp1691
(F0.0065180000000000004
F0.001771
tp1692
s(F117.5
F40.399999999999999
tp1693
(F0.0065339999999999999
F0.0013320000000000001
tp1694
s(F117.5
F40.299999999999997
tp1695
(F0.0065230000000000002
F0.0013010000000000001
tp1696
s(F116.59999999999999
F41.700000000000003
tp1697
(F0.0060080000000000003
F0.001902
tp1698
s(F115.09999999999999
F40.399999999999999
tp1699
(F0.0065820000000000002
F0.0014419999999999999
tp1700
s(F117.90000000000001
F39.299999999999997
tp1701
(F0.0060400000000000002
F0.00091699999999999995
tp1702
s(F115.7
F39.799999999999997
tp1703
(F0.0061799999999999997
F0.001142
tp1704
s(F117.0
F41.200000000000003
tp1705
(F0.0063680000000000004
F0.0018450000000000001
tp1706
s(F115.09999999999999
F41.5
tp1707
(F0.0067320000000000001
F0.0021819999999999999
tp1708
s(F116.0
F41.600000000000001
tp1709
(F0.0063249999999999999
F0.0020339999999999998
tp1710
s(F116.0
F41.799999999999997
tp1711
(F0.0063509999999999999
F0.0020630000000000002
tp1712
s(F115.09999999999999
F41.200000000000003
tp1713
(F0.0066889999999999996
F0.0020019999999999999
tp1714
s(F116.2
F41.399999999999999
tp1715
(F0.0063090000000000004
F0.002032
tp1716
s(F116.2
F40.700000000000003
tp1717
(F0.0062170000000000003
F0.0014970000000000001
tp1718
s(F115.90000000000001
F39.399999999999999
tp1719
(F0.0058789999999999997
F0.00092000000000000003
tp1720
s(F116.40000000000001
F40.399999999999999
tp1721
(F0.0063029999999999996
F0.0014710000000000001
tp1722
s(F115.90000000000001
F39.0
tp1723
(F0.0058310000000000002
F0.00069999999999999999
tp1724
s(F116.40000000000001
F41.0
tp1725
(F0.0063839999999999999
F0.0018699999999999999
tp1726
s(F117.40000000000001
F39.700000000000003
tp1727
(F0.0066360000000000004
F0.001407
tp1728
s(F117.90000000000001
F41.899999999999999
tp1729
(F0.0063839999999999999
F0.0019400000000000001
tp1730
s(F116.59999999999999
F39.5
tp1731
(F0.0057289999999999997
F0.00097300000000000002
tp1732
s(F115.59999999999999
F41.5
tp1733
(F0.0062599999999999999
F0.0018240000000000001
tp1734
s(F116.7
F41.700000000000003
tp1735
(F0.0062170000000000003
F0.0020349999999999999
tp1736
s(F117.8
F40.299999999999997
tp1737
(F0.0064050000000000001
F0.001256
tp1738
s(F115.0
F40.799999999999997
tp1739
(F0.0063460000000000001
F0.00147
tp1740
s(F118.0
F39.899999999999999
tp1741
(F0.0062820000000000003
F0.001235
tp1742
s(F116.8
F39.100000000000001
tp1743
(F0.00596
F0.00092800000000000001
tp1744
s(F115.3
F40.0
tp1745
(F0.0063680000000000004
F0.0012329999999999999
tp1746
s(F116.90000000000001
F39.700000000000003
tp1747
(F0.0058950000000000001
F0.0010280000000000001
tp1748
s(F115.3
F41.399999999999999
tp1749
(F0.0065550000000000001
F0.0019880000000000002
tp1750
s(F117.59999999999999
F40.0
tp1751
(F0.0062170000000000003
F0.0010640000000000001
tp1752
s(F115.09999999999999
F39.200000000000003
tp1753
(F0.0064270000000000004
F0.0011720000000000001
tp1754
s(F115.2
F40.200000000000003
tp1755
(F0.0064050000000000001
F0.001266
tp1756
s(F116.2
F39.700000000000003
tp1757
(F0.0060889999999999998
F0.0012509999999999999
tp1758
s(F117.3
F40.799999999999997
tp1759
(F0.0065550000000000001
F0.0015759999999999999
tp1760
s(F115.5
F40.899999999999999
tp1761
(F0.0064689999999999999
F0.0016019999999999999
tp1762
s(F117.09999999999999
F39.799999999999997
tp1763
(F0.0065120000000000004
F0.0014139999999999999
tp1764
s(F117.3
F39.600000000000001
tp1765
(F0.0063940000000000004
F0.0012359999999999999
tp1766
s(F117.40000000000001
F39.399999999999999
tp1767
(F0.0065979999999999997
F0.001322
tp1768
s(F116.7
F39.5
tp1769
(F0.0059329999999999999
F0.0011050000000000001
tp1770
s(F117.59999999999999
F39.799999999999997
tp1771
(F0.0061910000000000003
F0.0010549999999999999
tp1772
s(F117.59999999999999
F40.5
tp1773
(F0.0062820000000000003
F0.0011709999999999999
tp1774
s(F117.7
F41.700000000000003
tp1775
(F0.0066039999999999996
F0.0020590000000000001
tp1776
s(F116.5
F40.0
tp1777
(F0.0060400000000000002
F0.0012409999999999999
tp1778
s(F117.7
F41.399999999999999
tp1779
(F0.006561
F0.0019599999999999999
tp1780
s(F116.7
F41.5
tp1781
(F0.0061910000000000003
F0.0019810000000000001
tp1782
s(F115.3
F39.200000000000003
tp1783
(F0.0062709999999999997
F0.001023
tp1784
s(F115.5
F40.700000000000003
tp1785
(F0.0064429999999999999
F0.001444
tp1786
s(F117.2
F40.100000000000001
tp1787
(F0.006437
F0.0013010000000000001
tp1788
s(F115.59999999999999
F41.399999999999999
tp1789
(F0.0062440000000000004
F0.001779
tp1790
s(F115.0
F42.0
tp1791
(F0.0065069999999999998
F0.0020249999999999999
tp1792
s(F118.0
F40.200000000000003
tp1793
(F0.006319
F0.0012539999999999999
tp1794
s(F115.59999999999999
F42.0
tp1795
(F0.0063249999999999999
F0.0018779999999999999
tp1796
s(F115.59999999999999
F39.100000000000001
tp1797
(F0.0059550000000000002
F0.000754
tp1798
s(F115.40000000000001
F39.100000000000001
tp1799
(F0.0064530000000000004
F0.001116
tp1800
s(F117.40000000000001
F40.700000000000003
tp1801
(F0.00677
F0.0016509999999999999
tp1802
s(F117.7
F39.600000000000001
tp1803
(F0.006319
F0.001157
tp1804
s(F116.90000000000001
F39.0
tp1805
(F0.0058100000000000001
F0.00072099999999999996
tp1806
s(F116.7
F40.700000000000003
tp1807
(F0.0060829999999999999
F0.0013990000000000001
tp1808
s(F116.8
F39.299999999999997
tp1809
(F0.0059810000000000002
F0.001042
tp1810
s(F116.59999999999999
F40.799999999999997
tp1811
(F0.0058900000000000003
F0.00134
tp1812
s(F117.5
F39.5
tp1813
(F0.0064159999999999998
F0.001196
tp1814
s(F115.8
F40.5
tp1815
(F0.0062550000000000001
F0.001281
tp1816
s(F117.7
F40.5
tp1817
(F0.006437
F0.0013010000000000001
tp1818
s(F116.90000000000001
F40.399999999999999
tp1819
(F0.0059810000000000002
F0.0011150000000000001
tp1820
s(F116.5
F39.0
tp1821
(F0.0059170000000000004
F0.00091299999999999997
tp1822
s(F116.90000000000001
F40.700000000000003
tp1823
(F0.006019
F0.001273
tp1824
s(F115.3
F41.200000000000003
tp1825
(F0.0065279999999999999
F0.0018569999999999999
tp1826
s(F115.40000000000001
F40.200000000000003
tp1827
(F0.0065979999999999997
F0.001397
tp1828
s(F117.7
F41.5
tp1829
(F0.0065770000000000004
F0.0020049999999999998
tp1830
s(F115.40000000000001
F39.700000000000003
tp1831
(F0.0065279999999999999
F0.0013619999999999999
tp1832
s(F115.8
F39.399999999999999
tp1833
(F0.0061149999999999998
F0.0010690000000000001
tp1834
s(F117.40000000000001
F40.399999999999999
tp1835
(F0.0067320000000000001
F0.0014909999999999999
tp1836
s(F117.90000000000001
F39.600000000000001
tp1837
(F0.0060780000000000001
F0.0010330000000000001
tp1838
s(F116.40000000000001
F41.700000000000003
tp1839
(F0.0064799999999999996
F0.0022669999999999999
tp1840
s(F117.09999999999999
F39.0
tp1841
(F0.0064050000000000001
F0.0010920000000000001
tp1842
s(F115.2
F41.100000000000001
tp1843
(F0.0065279999999999999
F0.001799
tp1844
s(F116.59999999999999
F40.0
tp1845
(F0.0057939999999999997
F0.001044
tp1846
s(F116.7
F40.600000000000001
tp1847
(F0.0060730000000000003
F0.0013359999999999999
tp1848
s(F117.8
F41.700000000000003
tp1849
(F0.0065979999999999997
F0.0020830000000000002
tp1850
s(F115.40000000000001
F41.799999999999997
tp1851
(F0.0068180000000000003
F0.0022469999999999999
tp1852
s(F116.3
F40.299999999999997
tp1853
(F0.00611
F0.001289
tp1854
s(F115.59999999999999
F40.700000000000003
tp1855
(F0.0061529999999999996
F0.0012440000000000001
tp1856
s(F116.7
F40.5
tp1857
(F0.0060619999999999997
F0.001281
tp1858
s(F115.59999999999999
F41.299999999999997
tp1859
(F0.0062329999999999998
F0.001717
tp1860
s(F118.0
F41.5
tp1861
(F0.006496
F0.002049
tp1862
s(F117.0
F41.0
tp1863
(F0.0063410000000000003
F0.0016800000000000001
tp1864
s(F117.5
F41.100000000000001
tp1865
(F0.0066299999999999996
F0.001815
tp1866
s(F117.2
F41.100000000000001
tp1867
(F0.0065709999999999996
F0.001843
tp1868
s(F117.40000000000001
F39.5
tp1869
(F0.0066090000000000003
F0.001358
tp1870
s(F116.3
F41.899999999999999
tp1871
(F0.006319
F0.0021199999999999999
tp1872
s(F117.90000000000001
F40.299999999999997
tp1873
(F0.006169
F0.001109
tp1874
s(F115.8
F39.600000000000001
tp1875
(F0.0061419999999999999
F0.0011329999999999999
tp1876
s(F117.5
F39.899999999999999
tp1877
(F0.0064689999999999999
F0.001263
tp1878
s(F117.40000000000001
F41.700000000000003
tp1879
(F0.0069150000000000001
F0.0022910000000000001
tp1880
s(F117.59999999999999
F41.899999999999999
tp1881
(F0.0064749999999999999
F0.0019319999999999999
tp1882
s(F117.0
F40.100000000000001
tp1883
(F0.0062230000000000002
F0.0012229999999999999
tp1884
s(F117.0
F41.100000000000001
tp1885
(F0.0063509999999999999
F0.0017669999999999999
tp1886
s(F116.0
F40.299999999999997
tp1887
(F0.0061529999999999996
F0.001227
tp1888
s(F117.7
F40.600000000000001
tp1889
(F0.0064530000000000004
F0.001356
tp1890
s(F117.2
F39.0
tp1891
(F0.0062979999999999998
F0.00096299999999999999
tp1892
s(F116.8
F40.899999999999999
tp1893
(F0.0061850000000000004
F0.0015770000000000001
tp1894
s(F118.0
F40.899999999999999
tp1895
(F0.0064159999999999998
F0.0016180000000000001
tp1896
s(F116.90000000000001
F41.399999999999999
tp1897
(F0.00611
F0.0018109999999999999
tp1898
s(F117.7
F40.0
tp1899
(F0.0063730000000000002
F0.001196
tp1900
s(F115.59999999999999
F41.0
tp1901
(F0.0061960000000000001
F0.0014859999999999999
tp1902
s(F117.8
F40.100000000000001
tp1903
(F0.006378
F0.001227
tp1904
s(F117.3
F40.100000000000001
tp1905
(F0.0064590000000000003
F0.0012800000000000001
tp1906
s(F116.90000000000001
F41.700000000000003
tp1907
(F0.0061529999999999996
F0.00191
tp1908
s.